ARM GAS  C:\Users\agraw\AppData\Local\Temp\cc9HB9ic.s 			page 1


   1              		.syntax unified
   2              		.cpu cortex-m3
   3              		.fpu softvfp
   4              		.eabi_attribute 20, 1
   5              		.eabi_attribute 21, 1
   6              		.eabi_attribute 23, 3
   7              		.eabi_attribute 24, 1
   8              		.eabi_attribute 25, 1
   9              		.eabi_attribute 26, 1
  10              		.eabi_attribute 30, 1
  11              		.eabi_attribute 34, 1
  12              		.eabi_attribute 18, 4
  13              		.thumb
  14              		.syntax unified
  15              		.file	"ceh.c"
  16              		.text
  17              	.Ltext0:
  18              		.cfi_sections	.debug_frame
  19              		.section	.text.CEH_init,"ax",%progbits
  20              		.align	2
  21              		.global	CEH_init
  22              		.thumb
  23              		.thumb_func
  24              		.type	CEH_init, %function
  25              	CEH_init:
  26              	.LFB114:
  27              		.file 1 "source\\bsw\\msg\\ceh.c"
   1:source\bsw\msg/ceh.c **** /**
   2:source\bsw\msg/ceh.c ****  * \file 	CEH.c
   3:source\bsw\msg/ceh.c ****  * \author 	Peter Fromm	- Hochschule Darmstadt 
   4:source\bsw\msg/ceh.c ****  * \date 	26.11.2016
   5:source\bsw\msg/ceh.c ****  * \version 0.1
   6:source\bsw\msg/ceh.c ****  *
   7:source\bsw\msg/ceh.c ****  * \brief  Logging mechanism
   8:source\bsw\msg/ceh.c ****  *
   9:source\bsw\msg/ceh.c ****  * \copyright Copyright ©2016
  10:source\bsw\msg/ceh.c ****  * Department of electrical engineering and information technology, Hochschule Darmstadt - Universi
  11:source\bsw\msg/ceh.c ****  * Permission to use, copy, modify, and distribute this software and its documentation for educatio
  12:source\bsw\msg/ceh.c ****  * (unless permitted by h_da) and official h_da projects, is hereby granted for enrolled students o
  13:source\bsw\msg/ceh.c ****  * this paragraph and the following paragraph appear in all copies, modifications, and distribution
  14:source\bsw\msg/ceh.c ****  * Contact Prof.Dr.-Ing. Peter Fromm, peter.fromm@h-da.de, Birkenweg 8 64295 Darmstadt - GERMANY fo
  15:source\bsw\msg/ceh.c ****  *
  16:source\bsw\msg/ceh.c ****  * \warning This software is a PROTOTYPE version and is not designed or intended for use in product
  17:source\bsw\msg/ceh.c ****  * The user represents and warrants that it will NOT use or redistribute the Software for such purp
  18:source\bsw\msg/ceh.c ****  * This prototype is for research purposes only. This software is provided "AS IS," without a warra
  19:source\bsw\msg/ceh.c ****  */
  20:source\bsw\msg/ceh.c **** /*=======================[ Includes ]==============================================================
  21:source\bsw\msg/ceh.c **** #include <project.h>
  22:source\bsw\msg/ceh.c **** #include <stdlib.h>
  23:source\bsw\msg/ceh.c **** #include "ceh.h"
  24:source\bsw\msg/ceh.c **** #include "logging.h"
  25:source\bsw\msg/ceh.c **** 
  26:source\bsw\msg/ceh.c **** 
  27:source\bsw\msg/ceh.c **** /*=======================[ constant data ]=========================================================
  28:source\bsw\msg/ceh.c **** 
  29:source\bsw\msg/ceh.c **** 
  30:source\bsw\msg/ceh.c **** /*=======================[ variable data ]=========================================================
ARM GAS  C:\Users\agraw\AppData\Local\Temp\cc9HB9ic.s 			page 2


  31:source\bsw\msg/ceh.c **** 
  32:source\bsw\msg/ceh.c **** /*=======================[ Function implementation ]===============================================
  33:source\bsw\msg/ceh.c **** 
  34:source\bsw\msg/ceh.c **** /**
  35:source\bsw\msg/ceh.c ****  * OPTIONAL Init Function, only required if object is not statically defined in configuration
  36:source\bsw\msg/ceh.c ****  * \param CEH_t *const me       : [IN/OUT] The object to be initialized
  37:source\bsw\msg/ceh.c ****  * \param uint16_t size         : [IN] Size of buffer
  38:source\bsw\msg/ceh.c ****  * \return RC_SUCCES or error code
  39:source\bsw\msg/ceh.c ****  **/
  40:source\bsw\msg/ceh.c **** RC_t CEH_init(CEH_t *const me, uint16_t size)
  41:source\bsw\msg/ceh.c **** {
  28              		.loc 1 41 0
  29              		.cfi_startproc
  30              		@ args = 0, pretend = 0, frame = 0
  31              		@ frame_needed = 0, uses_anonymous_args = 0
  32              	.LVL0:
  33 0000 38B5     		push	{r3, r4, r5, lr}
  34              		.cfi_def_cfa_offset 16
  35              		.cfi_offset 3, -16
  36              		.cfi_offset 4, -12
  37              		.cfi_offset 5, -8
  38              		.cfi_offset 14, -4
  39 0002 0446     		mov	r4, r0
  42:source\bsw\msg/ceh.c ****     me->nextFree = 0;
  40              		.loc 1 42 0
  41 0004 0025     		movs	r5, #0
  42 0006 4580     		strh	r5, [r0, #2]	@ movhi
  43:source\bsw\msg/ceh.c ****     me->size = size;
  43              		.loc 1 43 0
  44 0008 0180     		strh	r1, [r0]	@ movhi
  44:source\bsw\msg/ceh.c ****     
  45:source\bsw\msg/ceh.c ****     me->buffer = (CEH_event_log_entry_t*)malloc(me->size * sizeof(CEH_event_log_entry_t));
  45              		.loc 1 45 0
  46 000a 01EB4101 		add	r1, r1, r1, lsl #1
  47              	.LVL1:
  48 000e 8800     		lsls	r0, r1, #2
  49              	.LVL2:
  50 0010 FFF7FEFF 		bl	malloc
  51              	.LVL3:
  52 0014 6060     		str	r0, [r4, #4]
  46:source\bsw\msg/ceh.c ****     return RC_SUCCESS;
  47:source\bsw\msg/ceh.c **** }
  53              		.loc 1 47 0
  54 0016 2846     		mov	r0, r5
  55 0018 38BD     		pop	{r3, r4, r5, pc}
  56              		.cfi_endproc
  57              	.LFE114:
  58              		.size	CEH_init, .-CEH_init
  59 001a 00BF     		.section	.text.CEH_report,"ax",%progbits
  60              		.align	2
  61              		.global	CEH_report
  62              		.thumb
  63              		.thumb_func
  64              		.type	CEH_report, %function
  65              	CEH_report:
  66              	.LFB115:
  48:source\bsw\msg/ceh.c ****    
ARM GAS  C:\Users\agraw\AppData\Local\Temp\cc9HB9ic.s 			page 3


  49:source\bsw\msg/ceh.c **** /**
  50:source\bsw\msg/ceh.c ****  * Report an store an diagnostic event
  51:source\bsw\msg/ceh.c ****  * \param CEH_t *const me       : [IN/OUT] The object 
  52:source\bsw\msg/ceh.c ****  * \param CEH_event_t CEH_event : [IN] Event to be reported
  53:source\bsw\msg/ceh.c ****  * \param uint32_t data         : [IN] Optional payload
  54:source\bsw\msg/ceh.c ****  * \return RC_SUCCES or error code
  55:source\bsw\msg/ceh.c ****  **/
  56:source\bsw\msg/ceh.c **** RC_t CEH_report(CEH_t *const me, CEH_event_t CEH_event, uint32_t data)
  57:source\bsw\msg/ceh.c **** {
  67              		.loc 1 57 0
  68              		.cfi_startproc
  69              		@ args = 0, pretend = 0, frame = 168
  70              		@ frame_needed = 0, uses_anonymous_args = 0
  71              	.LVL4:
  72 0000 2DE9F041 		push	{r4, r5, r6, r7, r8, lr}
  73              		.cfi_def_cfa_offset 24
  74              		.cfi_offset 4, -24
  75              		.cfi_offset 5, -20
  76              		.cfi_offset 6, -16
  77              		.cfi_offset 7, -12
  78              		.cfi_offset 8, -8
  79              		.cfi_offset 14, -4
  80 0004 ACB0     		sub	sp, sp, #176
  81              		.cfi_def_cfa_offset 200
  82 0006 0446     		mov	r4, r0
  83 0008 0D46     		mov	r5, r1
  84 000a 1746     		mov	r7, r2
  85              	.LVL5:
  58:source\bsw\msg/ceh.c ****     
  59:source\bsw\msg/ceh.c ****     
  60:source\bsw\msg/ceh.c ****     RC_t result = RC_SUCCESS;
  61:source\bsw\msg/ceh.c ****     uint32_t currentTime = CEH_getTimeInMs();
  86              		.loc 1 61 0
  87 000c FFF7FEFF 		bl	CEH_getTimeInMs
  88              	.LVL6:
  89 0010 0646     		mov	r6, r0
  90              	.LVL7:
  91              	.LBB2:
  62:source\bsw\msg/ceh.c **** 
  63:source\bsw\msg/ceh.c ****     LOG_E("CEH","%s (%d) at %dms ", CEH_source_strings[CEH_event], data, currentTime);
  92              		.loc 1 63 0
  93 0012 0DF1B008 		add	r8, sp, #176
  94 0016 0323     		movs	r3, #3
  95 0018 08F8A83D 		strb	r3, [r8, #-168]!
  96 001c 244B     		ldr	r3, .L10
  97 001e 1868     		ldr	r0, [r3]	@ unaligned
  98              	.LVL8:
  99 0020 CDF80900 		str	r0, [sp, #9]	@ unaligned
 100 0024 234B     		ldr	r3, .L10+4
 101 0026 53F82520 		ldr	r2, [r3, r5, lsl #2]
 102 002a 0096     		str	r6, [sp]
 103 002c 3B46     		mov	r3, r7
 104 002e 2249     		ldr	r1, .L10+8
 105 0030 0DF11900 		add	r0, sp, #25
 106 0034 FFF7FEFF 		bl	sprintf
 107              	.LVL9:
 108 0038 4046     		mov	r0, r8
ARM GAS  C:\Users\agraw\AppData\Local\Temp\cc9HB9ic.s 			page 4


 109 003a FFF7FEFF 		bl	LOG_send
 110              	.LVL10:
 111              	.LBE2:
  64:source\bsw\msg/ceh.c **** 
  65:source\bsw\msg/ceh.c ****     
  66:source\bsw\msg/ceh.c ****     if (me->nextFree < me->size)
 112              		.loc 1 66 0
 113 003e 6288     		ldrh	r2, [r4, #2]
 114 0040 2388     		ldrh	r3, [r4]
 115 0042 9A42     		cmp	r2, r3
 116 0044 1CD2     		bcs	.L8
  67:source\bsw\msg/ceh.c ****     {
  68:source\bsw\msg/ceh.c ****         CEH_lock();
 117              		.loc 1 68 0
 118 0046 FFF7FEFF 		bl	CEH_lock
 119              	.LVL11:
  69:source\bsw\msg/ceh.c ****         
  70:source\bsw\msg/ceh.c ****         me->buffer[me->nextFree].event = CEH_event;
 120              		.loc 1 70 0
 121 004a 6168     		ldr	r1, [r4, #4]
 122 004c 6388     		ldrh	r3, [r4, #2]
 123 004e 03EB4303 		add	r3, r3, r3, lsl #1
 124 0052 9A00     		lsls	r2, r3, #2
 125 0054 8D54     		strb	r5, [r1, r2]
  71:source\bsw\msg/ceh.c ****         me->buffer[me->nextFree].data = data;
 126              		.loc 1 71 0
 127 0056 6168     		ldr	r1, [r4, #4]
 128 0058 6388     		ldrh	r3, [r4, #2]
 129 005a 03EB4303 		add	r3, r3, r3, lsl #1
 130 005e 9A00     		lsls	r2, r3, #2
 131 0060 0A44     		add	r2, r2, r1
 132 0062 5760     		str	r7, [r2, #4]
  72:source\bsw\msg/ceh.c ****         me->buffer[me->nextFree].timestamp = currentTime;
 133              		.loc 1 72 0
 134 0064 6168     		ldr	r1, [r4, #4]
 135 0066 6388     		ldrh	r3, [r4, #2]
 136 0068 03EB4303 		add	r3, r3, r3, lsl #1
 137 006c 9A00     		lsls	r2, r3, #2
 138 006e 0A44     		add	r2, r2, r1
 139 0070 9660     		str	r6, [r2, #8]
  73:source\bsw\msg/ceh.c ****         
  74:source\bsw\msg/ceh.c ****         me->nextFree++;
 140              		.loc 1 74 0
 141 0072 6388     		ldrh	r3, [r4, #2]
 142 0074 0133     		adds	r3, r3, #1
 143 0076 6380     		strh	r3, [r4, #2]	@ movhi
  75:source\bsw\msg/ceh.c ****         
  76:source\bsw\msg/ceh.c ****         CEH_unlock();
 144              		.loc 1 76 0
 145 0078 FFF7FEFF 		bl	CEH_unlock
 146              	.LVL12:
  60:source\bsw\msg/ceh.c ****     uint32_t currentTime = CEH_getTimeInMs();
 147              		.loc 1 60 0
 148 007c 0024     		movs	r4, #0
 149              	.LVL13:
 150 007e 01E0     		b	.L4
 151              	.LVL14:
ARM GAS  C:\Users\agraw\AppData\Local\Temp\cc9HB9ic.s 			page 5


 152              	.L8:
  77:source\bsw\msg/ceh.c ****     }
  78:source\bsw\msg/ceh.c ****     else
  79:source\bsw\msg/ceh.c ****     {
  80:source\bsw\msg/ceh.c ****         result = RC_ERROR_BUFFER_FULL;
 153              		.loc 1 80 0
 154 0080 6FF00704 		mvn	r4, #7
 155              	.LVL15:
 156              	.L4:
  81:source\bsw\msg/ceh.c ****     }
  82:source\bsw\msg/ceh.c ****     
  83:source\bsw\msg/ceh.c ****     //Check for additional actions required from configuration
  84:source\bsw\msg/ceh.c ****     if(BREAKPOINT == CEH_event_table[CEH_event].reaction)
 157              		.loc 1 84 0
 158 0084 0D4B     		ldr	r3, .L10+12
 159 0086 03EB4505 		add	r5, r3, r5, lsl #1
 160 008a 6B78     		ldrb	r3, [r5, #1]	@ zero_extendqisi2
 161 008c 012B     		cmp	r3, #1
 162 008e 01D1     		bne	.L5
  85:source\bsw\msg/ceh.c ****     {
  86:source\bsw\msg/ceh.c ****         __asm("bkpt");
 163              		.loc 1 86 0
 164              		.syntax unified
 165              	@ 86 "source\bsw\msg\ceh.c" 1
 166 0090 00BE     		bkpt
 167              	@ 0 "" 2
 168              		.thumb
 169              		.syntax unified
 170 0092 08E0     		b	.L6
 171              	.L5:
  87:source\bsw\msg/ceh.c ****     } 
  88:source\bsw\msg/ceh.c ****     else if (RESET == CEH_event_table[CEH_event].reaction)
 172              		.loc 1 88 0
 173 0094 022B     		cmp	r3, #2
 174 0096 02D1     		bne	.L7
  89:source\bsw\msg/ceh.c ****     {
  90:source\bsw\msg/ceh.c ****         CySoftwareReset();
 175              		.loc 1 90 0
 176 0098 FFF7FEFF 		bl	CySoftwareReset
 177              	.LVL16:
 178 009c 03E0     		b	.L6
 179              	.L7:
  91:source\bsw\msg/ceh.c ****     }
  92:source\bsw\msg/ceh.c ****     else if (STOP == CEH_event_table[CEH_event].reaction)
 180              		.loc 1 92 0
 181 009e 032B     		cmp	r3, #3
 182 00a0 01D1     		bne	.L6
  93:source\bsw\msg/ceh.c ****     {
  94:source\bsw\msg/ceh.c ****         CEH_deactivateActors();
 183              		.loc 1 94 0
 184 00a2 FFF7FEFF 		bl	CEH_deactivateActors
 185              	.LVL17:
 186              	.L6:
  95:source\bsw\msg/ceh.c ****     }
  96:source\bsw\msg/ceh.c ****       
  97:source\bsw\msg/ceh.c ****     return result;
  98:source\bsw\msg/ceh.c **** }
ARM GAS  C:\Users\agraw\AppData\Local\Temp\cc9HB9ic.s 			page 6


 187              		.loc 1 98 0
 188 00a6 2046     		mov	r0, r4
 189 00a8 2CB0     		add	sp, sp, #176
 190              		.cfi_def_cfa_offset 24
 191              		@ sp needed
 192 00aa BDE8F081 		pop	{r4, r5, r6, r7, r8, pc}
 193              	.LVL18:
 194              	.L11:
 195 00ae 00BF     		.align	2
 196              	.L10:
 197 00b0 00000000 		.word	.LC0
 198 00b4 00000000 		.word	CEH_source_strings
 199 00b8 04000000 		.word	.LC1
 200 00bc 00000000 		.word	CEH_event_table
 201              		.cfi_endproc
 202              	.LFE115:
 203              		.size	CEH_report, .-CEH_report
 204              		.section	.text.CEH_dump,"ax",%progbits
 205              		.align	2
 206              		.global	CEH_dump
 207              		.thumb
 208              		.thumb_func
 209              		.type	CEH_dump, %function
 210              	CEH_dump:
 211              	.LFB116:
  99:source\bsw\msg/ceh.c **** 
 100:source\bsw\msg/ceh.c **** /**
 101:source\bsw\msg/ceh.c ****  * Dump content of CEH Buffer to UART
 102:source\bsw\msg/ceh.c ****  * \param CEH_t *const me       : [IN] The object 
 103:source\bsw\msg/ceh.c ****  * \return RC_SUCCES or error code
 104:source\bsw\msg/ceh.c ****  **/
 105:source\bsw\msg/ceh.c **** RC_t CEH_dump(CEH_t *const me)
 106:source\bsw\msg/ceh.c **** {
 212              		.loc 1 106 0
 213              		.cfi_startproc
 214              		@ args = 0, pretend = 0, frame = 168
 215              		@ frame_needed = 0, uses_anonymous_args = 0
 216              	.LVL19:
 217 0000 2DE9F043 		push	{r4, r5, r6, r7, r8, r9, lr}
 218              		.cfi_def_cfa_offset 28
 219              		.cfi_offset 4, -28
 220              		.cfi_offset 5, -24
 221              		.cfi_offset 6, -20
 222              		.cfi_offset 7, -16
 223              		.cfi_offset 8, -12
 224              		.cfi_offset 9, -8
 225              		.cfi_offset 14, -4
 226 0004 B1B0     		sub	sp, sp, #196
 227              		.cfi_def_cfa_offset 224
 228 0006 0646     		mov	r6, r0
 107:source\bsw\msg/ceh.c ****     CEH_lock();
 229              		.loc 1 107 0
 230 0008 FFF7FEFF 		bl	CEH_lock
 231              	.LVL20:
 232              	.LBB3:
 108:source\bsw\msg/ceh.c ****     
 109:source\bsw\msg/ceh.c ****     LOG_I("CEH","Number of entries: %d", me->nextFree);
ARM GAS  C:\Users\agraw\AppData\Local\Temp\cc9HB9ic.s 			page 7


 233              		.loc 1 109 0
 234 000c 30AC     		add	r4, sp, #192
 235 000e 0123     		movs	r3, #1
 236 0010 04F8A83D 		strb	r3, [r4, #-168]!
 237 0014 2C4B     		ldr	r3, .L16
 238 0016 1868     		ldr	r0, [r3]	@ unaligned
 239 0018 CDF81900 		str	r0, [sp, #25]	@ unaligned
 240 001c 7288     		ldrh	r2, [r6, #2]
 241 001e 2B49     		ldr	r1, .L16+4
 242 0020 0DF12900 		add	r0, sp, #41
 243 0024 FFF7FEFF 		bl	sprintf
 244              	.LVL21:
 245 0028 2046     		mov	r0, r4
 246 002a FFF7FEFF 		bl	LOG_send
 247              	.LVL22:
 248              	.LBE3:
 249              	.LBB4:
 110:source\bsw\msg/ceh.c ****     
 111:source\bsw\msg/ceh.c ****     
 112:source\bsw\msg/ceh.c ****     for (uint16_t i = 0; i < me->nextFree; i++)
 250              		.loc 1 112 0
 251 002e 0024     		movs	r4, #0
 252 0030 40E0     		b	.L13
 253              	.LVL23:
 254              	.L14:
 255              	.LBB5:
 113:source\bsw\msg/ceh.c ****     {
 114:source\bsw\msg/ceh.c ****         uint32_t hh, mm, ss, ms =  0;
 115:source\bsw\msg/ceh.c ****         uint32_t t =  me->buffer[i].timestamp;
 256              		.loc 1 115 0
 257 0032 D6F80480 		ldr	r8, [r6, #4]
 258 0036 04EB4403 		add	r3, r4, r4, lsl #1
 259 003a 4FEA830E 		lsl	lr, r3, #2
 260 003e 08EB0E0C 		add	ip, r8, lr
 261 0042 DCF80800 		ldr	r0, [ip, #8]
 262              	.LVL24:
 116:source\bsw\msg/ceh.c ****         
 117:source\bsw\msg/ceh.c ****         hh = t / 3600 / 1000;
 263              		.loc 1 117 0
 264 0046 224A     		ldr	r2, .L16+8
 265 0048 A2FB0032 		umull	r3, r2, r2, r0
 266 004c 520D     		lsrs	r2, r2, #21
 267              	.LVL25:
 118:source\bsw\msg/ceh.c ****         t -= hh * 3600 * 1000;
 268              		.loc 1 118 0
 269 004e 214B     		ldr	r3, .L16+12
 270 0050 03FB1200 		mls	r0, r3, r2, r0
 271              	.LVL26:
 119:source\bsw\msg/ceh.c ****         mm = t / 60 / 1000;
 272              		.loc 1 119 0
 273 0054 2049     		ldr	r1, .L16+16
 274 0056 A1FB0031 		umull	r3, r1, r1, r0
 275 005a 890B     		lsrs	r1, r1, #14
 276              	.LVL27:
 120:source\bsw\msg/ceh.c ****         t -= mm * 60 * 1000;
 277              		.loc 1 120 0
 278 005c 4EF66023 		movw	r3, #60000
ARM GAS  C:\Users\agraw\AppData\Local\Temp\cc9HB9ic.s 			page 8


 279 0060 03FB1103 		mls	r3, r3, r1, r0
 280              	.LVL28:
 121:source\bsw\msg/ceh.c ****         ss = t / 1000;
 281              		.loc 1 121 0
 282 0064 1D4D     		ldr	r5, .L16+20
 283 0066 A5FB0305 		umull	r0, r5, r5, r3
 284 006a AD09     		lsrs	r5, r5, #6
 285              	.LVL29:
 122:source\bsw\msg/ceh.c ****         t -= ss * 1000;
 286              		.loc 1 122 0
 287 006c 4FF47A79 		mov	r9, #1000
 288 0070 09FB1539 		mls	r9, r9, r5, r3
 289              	.LVL30:
 290              	.LBB6:
 123:source\bsw\msg/ceh.c ****         ms = t;
 124:source\bsw\msg/ceh.c **** 
 125:source\bsw\msg/ceh.c ****         
 126:source\bsw\msg/ceh.c ****         LOG_I("CEH","[%d] %s %d at %02d:%02d:%02d.%d ", i, CEH_source_strings[me->buffer[i].event],
 291              		.loc 1 126 0
 292 0074 30AF     		add	r7, sp, #192
 293 0076 0123     		movs	r3, #1
 294 0078 07F8A83D 		strb	r3, [r7, #-168]!
 295 007c 124B     		ldr	r3, .L16
 296 007e 1868     		ldr	r0, [r3]	@ unaligned
 297 0080 CDF81900 		str	r0, [sp, #25]	@ unaligned
 298 0084 18F80E00 		ldrb	r0, [r8, lr]	@ zero_extendqisi2
 299 0088 154B     		ldr	r3, .L16+24
 300 008a 53F82030 		ldr	r3, [r3, r0, lsl #2]
 301 008e CDF81090 		str	r9, [sp, #16]
 302 0092 0395     		str	r5, [sp, #12]
 303 0094 0291     		str	r1, [sp, #8]
 304 0096 0192     		str	r2, [sp, #4]
 305 0098 DCF80420 		ldr	r2, [ip, #4]
 306              	.LVL31:
 307 009c 0092     		str	r2, [sp]
 308 009e 2246     		mov	r2, r4
 309 00a0 1049     		ldr	r1, .L16+28
 310              	.LVL32:
 311 00a2 0DF12900 		add	r0, sp, #41
 312 00a6 FFF7FEFF 		bl	sprintf
 313              	.LVL33:
 314 00aa 3846     		mov	r0, r7
 315 00ac FFF7FEFF 		bl	LOG_send
 316              	.LVL34:
 317              	.LBE6:
 318              	.LBE5:
 112:source\bsw\msg/ceh.c ****     {
 319              		.loc 1 112 0
 320 00b0 0134     		adds	r4, r4, #1
 321              	.LVL35:
 322 00b2 A4B2     		uxth	r4, r4
 323              	.LVL36:
 324              	.L13:
 112:source\bsw\msg/ceh.c ****     {
 325              		.loc 1 112 0 is_stmt 0 discriminator 1
 326 00b4 7388     		ldrh	r3, [r6, #2]
 327 00b6 9C42     		cmp	r4, r3
ARM GAS  C:\Users\agraw\AppData\Local\Temp\cc9HB9ic.s 			page 9


 328 00b8 BBD3     		bcc	.L14
 329              	.LBE4:
 127:source\bsw\msg/ceh.c ****     }
 128:source\bsw\msg/ceh.c ****     
 129:source\bsw\msg/ceh.c ****     CEH_unlock();
 330              		.loc 1 129 0 is_stmt 1
 331 00ba FFF7FEFF 		bl	CEH_unlock
 332              	.LVL37:
 130:source\bsw\msg/ceh.c ****     
 131:source\bsw\msg/ceh.c ****     return RC_SUCCESS;
 132:source\bsw\msg/ceh.c **** }
 333              		.loc 1 132 0
 334 00be 0020     		movs	r0, #0
 335 00c0 31B0     		add	sp, sp, #196
 336              		.cfi_def_cfa_offset 28
 337              		@ sp needed
 338 00c2 BDE8F083 		pop	{r4, r5, r6, r7, r8, r9, pc}
 339              	.LVL38:
 340              	.L17:
 341 00c6 00BF     		.align	2
 342              	.L16:
 343 00c8 00000000 		.word	.LC0
 344 00cc 18000000 		.word	.LC2
 345 00d0 B17C2195 		.word	-1792967503
 346 00d4 80EE3600 		.word	3600000
 347 00d8 73B2E745 		.word	1172812403
 348 00dc D34D6210 		.word	274877907
 349 00e0 00000000 		.word	CEH_source_strings
 350 00e4 30000000 		.word	.LC3
 351              		.cfi_endproc
 352              	.LFE116:
 353              		.size	CEH_dump, .-CEH_dump
 354              		.section	.text.CEH_clear,"ax",%progbits
 355              		.align	2
 356              		.global	CEH_clear
 357              		.thumb
 358              		.thumb_func
 359              		.type	CEH_clear, %function
 360              	CEH_clear:
 361              	.LFB117:
 133:source\bsw\msg/ceh.c **** 
 134:source\bsw\msg/ceh.c **** /**
 135:source\bsw\msg/ceh.c ****  * Clear content of CEH Buffer
 136:source\bsw\msg/ceh.c ****  * \param CEH_t *const me       : [IN] The object 
 137:source\bsw\msg/ceh.c ****  * \return RC_SUCCES or error code
 138:source\bsw\msg/ceh.c ****  **/
 139:source\bsw\msg/ceh.c **** RC_t CEH_clear(CEH_t *const me)
 140:source\bsw\msg/ceh.c **** {
 362              		.loc 1 140 0
 363              		.cfi_startproc
 364              		@ args = 0, pretend = 0, frame = 0
 365              		@ frame_needed = 0, uses_anonymous_args = 0
 366              		@ link register save eliminated.
 367              	.LVL39:
 141:source\bsw\msg/ceh.c ****     me->nextFree = 0;
 368              		.loc 1 141 0
 369 0000 0023     		movs	r3, #0
ARM GAS  C:\Users\agraw\AppData\Local\Temp\cc9HB9ic.s 			page 10


 370 0002 4380     		strh	r3, [r0, #2]	@ movhi
 142:source\bsw\msg/ceh.c ****     return RC_SUCCESS;
 143:source\bsw\msg/ceh.c **** }
 371              		.loc 1 143 0
 372 0004 1846     		mov	r0, r3
 373              	.LVL40:
 374 0006 7047     		bx	lr
 375              		.cfi_endproc
 376              	.LFE117:
 377              		.size	CEH_clear, .-CEH_clear
 378              		.section	.rodata.str1.4,"aMS",%progbits,1
 379              		.align	2
 380              	.LC0:
 381 0000 43454800 		.ascii	"CEH\000"
 382              	.LC1:
 383 0004 25732028 		.ascii	"%s (%d) at %dms \000"
 383      25642920 
 383      61742025 
 383      646D7320 
 383      00
 384 0015 000000   		.space	3
 385              	.LC2:
 386 0018 4E756D62 		.ascii	"Number of entries: %d\000"
 386      6572206F 
 386      6620656E 
 386      74726965 
 386      733A2025 
 387 002e 0000     		.space	2
 388              	.LC3:
 389 0030 5B25645D 		.ascii	"[%d] %s %d at %02d:%02d:%02d.%d \000"
 389      20257320 
 389      25642061 
 389      74202530 
 389      32643A25 
 390              		.text
 391              	.Letext0:
 392              		.file 2 "c:\\program files (x86)\\cypress\\psoc creator\\4.4\\psoc creator\\import\\gnu\\arm\\5.4.
 393              		.file 3 "c:\\program files (x86)\\cypress\\psoc creator\\4.4\\psoc creator\\import\\gnu\\arm\\5.4.
 394              		.file 4 "Generated_Source\\PSoC5/ErikaOS_1_common_ee_types.inc"
 395              		.file 5 "Generated_Source\\PSoC5/ErikaOS_1_cortex_mx_ee_cpu.inc"
 396              		.file 6 ".\\source\\bsw/global.h"
 397              		.file 7 "source\\bsw\\msg\\ceh_cfg.h"
 398              		.file 8 ".\\source\\bsw\\services/logging.h"
 399              		.file 9 "Generated_Source\\PSoC5/ErikaOS_1_ee_oo_intfunc.inc"
 400              		.file 10 "Generated_Source\\PSoC5/ErikaOS_1_cortex_mx_ee_context.inc"
 401              		.file 11 "Generated_Source\\PSoC5/ErikaOS_1_common_ee_primitives.inc"
 402              		.file 12 "Generated_Source\\PSoC5/core_cm3.h"
 403              		.file 13 "c:\\program files (x86)\\cypress\\psoc creator\\4.4\\psoc creator\\import\\gnu\\arm\\5.4
 404              		.file 14 "c:\\program files (x86)\\cypress\\psoc creator\\4.4\\psoc creator\\import\\gnu\\arm\\5.4
 405              		.file 15 "Generated_Source\\PSoC5/CyLib.h"