ARM GAS  C:\Users\agraw\AppData\Local\Temp\ccMWEdw4.s 			page 1


   1              		.syntax unified
   2              		.cpu cortex-m3
   3              		.fpu softvfp
   4              		.eabi_attribute 20, 1
   5              		.eabi_attribute 21, 1
   6              		.eabi_attribute 23, 3
   7              		.eabi_attribute 24, 1
   8              		.eabi_attribute 25, 1
   9              		.eabi_attribute 26, 1
  10              		.eabi_attribute 30, 1
  11              		.eabi_attribute 34, 1
  12              		.eabi_attribute 18, 4
  13              		.thumb
  14              		.syntax unified
  15              		.file	"drawer.c"
  16              		.text
  17              	.Ltext0:
  18              		.cfi_sections	.debug_frame
  19              		.section	.text.DRAWER__colorFromToken,"ax",%progbits
  20              		.align	2
  21              		.thumb
  22              		.thumb_func
  23              		.type	DRAWER__colorFromToken, %function
  24              	DRAWER__colorFromToken:
  25              	.LFB117:
  26              		.file 1 "drawer.c"
   1:drawer.c      **** /* ========================================
   2:drawer.c      ****  *
   3:drawer.c      ****  * Copyright YOUR COMPANY, THE YEAR
   4:drawer.c      ****  * All Rights Reserved
   5:drawer.c      ****  * UNPUBLISHED, LICENSED SOFTWARE.
   6:drawer.c      ****  *
   7:drawer.c      ****  * CONFIDENTIAL AND PROPRIETARY INFORMATION
   8:drawer.c      ****  * WHICH IS THE PROPERTY OF your company.
   9:drawer.c      ****  *
  10:drawer.c      ****  * ========================================
  11:drawer.c      **** */
  12:drawer.c      **** 
  13:drawer.c      **** #include "drawer.h"
  14:drawer.c      **** #include "stdlib.h"
  15:drawer.c      **** #include <string.h>
  16:drawer.c      **** 
  17:drawer.c      **** 
  18:drawer.c      **** // Convert color string from JSON into TFT color enum
  19:drawer.c      **** static TFT_color_t DRAWER__colorFromToken(char* buf)
  20:drawer.c      **** {
  27              		.loc 1 20 0
  28              		.cfi_startproc
  29              		@ args = 0, pretend = 0, frame = 0
  30              		@ frame_needed = 0, uses_anonymous_args = 0
  31              	.LVL0:
  32 0000 10B5     		push	{r4, lr}
  33              		.cfi_def_cfa_offset 8
  34              		.cfi_offset 4, -8
  35              		.cfi_offset 14, -4
  36 0002 0446     		mov	r4, r0
  21:drawer.c      ****     
ARM GAS  C:\Users\agraw\AppData\Local\Temp\ccMWEdw4.s 			page 2


  22:drawer.c      ****     if(strcmp(buf, "red") == 0) return RED;
  37              		.loc 1 22 0
  38 0004 2349     		ldr	r1, .L13
  39 0006 FFF7FEFF 		bl	strcmp
  40              	.LVL1:
  41 000a 50B3     		cbz	r0, .L3
  23:drawer.c      ****     if(strcmp(buf, "white") == 0) return WHITE;
  42              		.loc 1 23 0
  43 000c 2249     		ldr	r1, .L13+4
  44 000e 2046     		mov	r0, r4
  45 0010 FFF7FEFF 		bl	strcmp
  46              	.LVL2:
  47 0014 38B3     		cbz	r0, .L4
  24:drawer.c      ****     if(strcmp(buf, "blue") == 0) return BLUE;
  48              		.loc 1 24 0
  49 0016 2149     		ldr	r1, .L13+8
  50 0018 2046     		mov	r0, r4
  51 001a FFF7FEFF 		bl	strcmp
  52              	.LVL3:
  53 001e 28B3     		cbz	r0, .L5
  25:drawer.c      ****     if(strcmp(buf, "black") == 0) return BLACK;
  54              		.loc 1 25 0
  55 0020 1F49     		ldr	r1, .L13+12
  56 0022 2046     		mov	r0, r4
  57 0024 FFF7FEFF 		bl	strcmp
  58              	.LVL4:
  59 0028 18B3     		cbz	r0, .L6
  26:drawer.c      ****     if(strcmp(buf, "green") == 0) return GREEN;
  60              		.loc 1 26 0
  61 002a 1E49     		ldr	r1, .L13+16
  62 002c 2046     		mov	r0, r4
  63 002e FFF7FEFF 		bl	strcmp
  64              	.LVL5:
  65 0032 00B3     		cbz	r0, .L7
  27:drawer.c      ****     if(strcmp(buf, "cyan") == 0) return CYAN;
  66              		.loc 1 27 0
  67 0034 1C49     		ldr	r1, .L13+20
  68 0036 2046     		mov	r0, r4
  69 0038 FFF7FEFF 		bl	strcmp
  70              	.LVL6:
  71 003c F0B1     		cbz	r0, .L8
  28:drawer.c      ****     if(strcmp(buf, "yellow") == 0) return YELLOW;
  72              		.loc 1 28 0
  73 003e 1B49     		ldr	r1, .L13+24
  74 0040 2046     		mov	r0, r4
  75 0042 FFF7FEFF 		bl	strcmp
  76              	.LVL7:
  77 0046 E0B1     		cbz	r0, .L9
  29:drawer.c      ****     if(strcmp(buf, "brown") == 0) return BROWN;
  78              		.loc 1 29 0
  79 0048 1949     		ldr	r1, .L13+28
  80 004a 2046     		mov	r0, r4
  81 004c FFF7FEFF 		bl	strcmp
  82              	.LVL8:
  83 0050 D0B1     		cbz	r0, .L10
  30:drawer.c      ****     if(strcmp(buf, "gray") == 0) return GRAY;
  84              		.loc 1 30 0
ARM GAS  C:\Users\agraw\AppData\Local\Temp\ccMWEdw4.s 			page 3


  85 0052 1849     		ldr	r1, .L13+32
  86 0054 2046     		mov	r0, r4
  87 0056 FFF7FEFF 		bl	strcmp
  88              	.LVL9:
  89 005a C0B9     		cbnz	r0, .L11
  90 005c 40F62140 		movw	r0, #3105
  91 0060 10BD     		pop	{r4, pc}
  92              	.LVL10:
  93              	.L3:
  22:drawer.c      ****     if(strcmp(buf, "white") == 0) return WHITE;
  94              		.loc 1 22 0
  95 0062 1F20     		movs	r0, #31
  96 0064 10BD     		pop	{r4, pc}
  97              	.LVL11:
  98              	.L4:
  23:drawer.c      ****     if(strcmp(buf, "blue") == 0) return BLUE;
  99              		.loc 1 23 0
 100 0066 4FF6FF70 		movw	r0, #65535
 101 006a 10BD     		pop	{r4, pc}
 102              	.LVL12:
 103              	.L5:
  24:drawer.c      ****     if(strcmp(buf, "black") == 0) return BLACK;
 104              		.loc 1 24 0
 105 006c 4FF47840 		mov	r0, #63488
 106 0070 10BD     		pop	{r4, pc}
 107              	.LVL13:
 108              	.L6:
  25:drawer.c      ****     if(strcmp(buf, "green") == 0) return GREEN;
 109              		.loc 1 25 0
 110 0072 0020     		movs	r0, #0
 111 0074 10BD     		pop	{r4, pc}
 112              	.LVL14:
 113              	.L7:
  26:drawer.c      ****     if(strcmp(buf, "cyan") == 0) return CYAN;
 114              		.loc 1 26 0
 115 0076 4FF4FC60 		mov	r0, #2016
 116 007a 10BD     		pop	{r4, pc}
 117              	.LVL15:
 118              	.L8:
  27:drawer.c      ****     if(strcmp(buf, "yellow") == 0) return YELLOW;
 119              		.loc 1 27 0
 120 007c 4FF6E070 		movw	r0, #65504
 121 0080 10BD     		pop	{r4, pc}
 122              	.LVL16:
 123              	.L9:
  28:drawer.c      ****     if(strcmp(buf, "brown") == 0) return BROWN;
 124              		.loc 1 28 0
 125 0082 40F2FF70 		movw	r0, #2047
 126 0086 10BD     		pop	{r4, pc}
 127              	.LVL17:
 128              	.L10:
  29:drawer.c      ****     if(strcmp(buf, "gray") == 0) return GRAY;
 129              		.loc 1 29 0
 130 0088 40F23D20 		movw	r0, #573
 131 008c 10BD     		pop	{r4, pc}
 132              	.LVL18:
 133              	.L11:
ARM GAS  C:\Users\agraw\AppData\Local\Temp\ccMWEdw4.s 			page 4


  31:drawer.c      ****     
  32:drawer.c      ****     return RED;
 134              		.loc 1 32 0
 135 008e 1F20     		movs	r0, #31
  33:drawer.c      **** }
 136              		.loc 1 33 0
 137 0090 10BD     		pop	{r4, pc}
 138              	.LVL19:
 139              	.L14:
 140 0092 00BF     		.align	2
 141              	.L13:
 142 0094 00000000 		.word	.LC0
 143 0098 04000000 		.word	.LC1
 144 009c 0C000000 		.word	.LC2
 145 00a0 14000000 		.word	.LC3
 146 00a4 1C000000 		.word	.LC4
 147 00a8 24000000 		.word	.LC5
 148 00ac 2C000000 		.word	.LC6
 149 00b0 34000000 		.word	.LC7
 150 00b4 3C000000 		.word	.LC8
 151              		.cfi_endproc
 152              	.LFE117:
 153              		.size	DRAWER__colorFromToken, .-DRAWER__colorFromToken
 154              		.section	.text.DRAWER_getNextDrawCommand,"ax",%progbits
 155              		.align	2
 156              		.global	DRAWER_getNextDrawCommand
 157              		.thumb
 158              		.thumb_func
 159              		.type	DRAWER_getNextDrawCommand, %function
 160              	DRAWER_getNextDrawCommand:
 161              	.LFB118:
  34:drawer.c      **** 
  35:drawer.c      **** 
  36:drawer.c      **** /**
  37:drawer.c      ****  * Translates a JSON tag into a command type for the TFT
  38:drawer.c      ****  * \param Drawer_t *const me            - [OUT] the next command
  39:drawer.c      ****  * \param Parser_t *const parser        - [IN/OUT] Parser object pointer
  40:drawer.c      ****  * \param MSG_id_t *const msgId         - [IN/OUT] Msg id for the messaging service
  41:drawer.c      ****  * \return RC_SUCCESS if a command was found, RC_ERROR_BUFFER_EMTPY if parsing has come to an end, 
  42:drawer.c      ****  */
  43:drawer.c      **** 
  44:drawer.c      **** RC_t DRAWER_getNextDrawCommand(Drawer_t *const me, Parser_t *const parser, MSG_id_t *const msgId){
 162              		.loc 1 44 0
 163              		.cfi_startproc
 164              		@ args = 0, pretend = 0, frame = 32
 165              		@ frame_needed = 0, uses_anonymous_args = 0
 166              	.LVL20:
 167 0000 2DE9F043 		push	{r4, r5, r6, r7, r8, r9, lr}
 168              		.cfi_def_cfa_offset 28
 169              		.cfi_offset 4, -28
 170              		.cfi_offset 5, -24
 171              		.cfi_offset 6, -20
 172              		.cfi_offset 7, -16
 173              		.cfi_offset 8, -12
 174              		.cfi_offset 9, -8
 175              		.cfi_offset 14, -4
 176 0004 89B0     		sub	sp, sp, #36
ARM GAS  C:\Users\agraw\AppData\Local\Temp\ccMWEdw4.s 			page 5


 177              		.cfi_def_cfa_offset 64
  45:drawer.c      ****     
  46:drawer.c      ****     // Check for invalid pointers
  47:drawer.c      ****     if(!parser || !me || !msgId){
 178              		.loc 1 47 0
 179 0006 0029     		cmp	r1, #0
 180 0008 00F09880 		beq	.L24
 181 000c 0D46     		mov	r5, r1
 182              		.loc 1 47 0 is_stmt 0 discriminator 1
 183 000e 0028     		cmp	r0, #0
 184 0010 00F09780 		beq	.L25
 185              		.loc 1 47 0 discriminator 2
 186 0014 002A     		cmp	r2, #0
 187 0016 00F09780 		beq	.L26
 188 001a 9046     		mov	r8, r2
 189 001c 0746     		mov	r7, r0
  48:drawer.c      ****         return RC_ERROR_BAD_PARAM;
  49:drawer.c      ****     }
  50:drawer.c      ****     
  51:drawer.c      ****     jsmntok_t token;
  52:drawer.c      ****     uint16_t savedIndex = parser->nextToken; // Save parser state for rollback
 190              		.loc 1 52 0 is_stmt 1
 191 001e B1F8D648 		ldrh	r4, [r1, #2262]
 192              	.LVL21:
  53:drawer.c      **** 
  54:drawer.c      ****     // Get next JSON token
  55:drawer.c      ****    if (PARSER_getNextToken(parser, &token) != RC_SUCCESS) {
 193              		.loc 1 55 0
 194 0022 04A9     		add	r1, sp, #16
 195              	.LVL22:
 196 0024 2846     		mov	r0, r5
 197              	.LVL23:
 198 0026 FFF7FEFF 		bl	PARSER_getNextToken
 199              	.LVL24:
 200 002a 0028     		cmp	r0, #0
 201 002c 40F08F80 		bne	.L27
  56:drawer.c      ****         return RC_ERROR_OVERRUN;
  57:drawer.c      ****     }
  58:drawer.c      ****     
  59:drawer.c      ****     // Expect a string command
  60:drawer.c      ****     if(token.type != JSMN_STRING){
 202              		.loc 1 60 0
 203 0030 9DF81030 		ldrb	r3, [sp, #16]	@ zero_extendqisi2
 204 0034 042B     		cmp	r3, #4
 205 0036 40F08D80 		bne	.L28
  61:drawer.c      ****         return RC_ERROR_NOT_MATCH;
  62:drawer.c      ****     }
  63:drawer.c      ****     
  64:drawer.c      ****     // Length of color string
  65:drawer.c      ****     uint16_t length = token.end - token.start;
 206              		.loc 1 65 0
 207 003a 059A     		ldr	r2, [sp, #20]
 208 003c 069B     		ldr	r3, [sp, #24]
 209 003e 9B1A     		subs	r3, r3, r2
 210 0040 9BB2     		uxth	r3, r3
 211              	.LVL25:
  66:drawer.c      ****     
ARM GAS  C:\Users\agraw\AppData\Local\Temp\ccMWEdw4.s 			page 6


  67:drawer.c      ****     // color string must be exactly one character
  68:drawer.c      ****     if(length != 1){
 212              		.loc 1 68 0
 213 0042 012B     		cmp	r3, #1
 214 0044 04D0     		beq	.L17
  69:drawer.c      ****         parser->nextToken = savedIndex;
 215              		.loc 1 69 0
 216 0046 A5F8D648 		strh	r4, [r5, #2262]	@ movhi
  70:drawer.c      ****         return RC_ERROR_NOT_MATCH;
 217              		.loc 1 70 0
 218 004a 6FF01209 		mvn	r9, #18
 219 004e 8CE0     		b	.L16
 220              	.L17:
  71:drawer.c      ****     }
  72:drawer.c      ****     
  73:drawer.c      ****     // Read color character
  74:drawer.c      ****     char str = parser->content[token.start];
 221              		.loc 1 74 0
 222 0050 2A44     		add	r2, r2, r5
 223 0052 137B     		ldrb	r3, [r2, #12]	@ zero_extendqisi2
 224              	.LVL26:
  75:drawer.c      ****     
  76:drawer.c      ****     // COLOR COMMAND FOUND
  77:drawer.c      ****     if( str == 'c'){
 225              		.loc 1 77 0
 226 0054 632B     		cmp	r3, #99
 227 0056 29D1     		bne	.L18
 228              	.LBB2:
  78:drawer.c      **** 
  79:drawer.c      ****          // Read color string token
  80:drawer.c      ****         if (PARSER_getNextToken(parser, &token) != RC_SUCCESS) {
 229              		.loc 1 80 0
 230 0058 04A9     		add	r1, sp, #16
 231 005a 2846     		mov	r0, r5
 232 005c FFF7FEFF 		bl	PARSER_getNextToken
 233              	.LVL27:
 234 0060 8146     		mov	r9, r0
 235 0062 E8B9     		cbnz	r0, .L29
  81:drawer.c      ****             return RC_ERROR_OVERRUN;
  82:drawer.c      ****         }
  83:drawer.c      **** 
  84:drawer.c      ****         // Color must be a string
  85:drawer.c      ****         if(token.type != JSMN_STRING){
 236              		.loc 1 85 0
 237 0064 9DF81030 		ldrb	r3, [sp, #16]	@ zero_extendqisi2
 238 0068 042B     		cmp	r3, #4
 239 006a 1CD1     		bne	.L30
  86:drawer.c      ****             return RC_ERROR_BAD_DATA;
  87:drawer.c      ****         }
  88:drawer.c      ****         
  89:drawer.c      ****         uint8_t strLenght = token.end - token.start;    // Color string length
 240              		.loc 1 89 0
 241 006c 059A     		ldr	r2, [sp, #20]
 242 006e 069B     		ldr	r3, [sp, #24]
 243 0070 9B1A     		subs	r3, r3, r2
 244 0072 DCB2     		uxtb	r4, r3
 245              	.LVL28:
ARM GAS  C:\Users\agraw\AppData\Local\Temp\ccMWEdw4.s 			page 7


  90:drawer.c      ****         
  91:drawer.c      ****         char tempBuf[16];
  92:drawer.c      ****         memcpy(tempBuf, &parser->content[token.start], strLenght);  // Copy color text
 246              		.loc 1 92 0
 247 0074 0832     		adds	r2, r2, #8
 248 0076 A918     		adds	r1, r5, r2
 249 0078 2246     		mov	r2, r4
 250 007a 0431     		adds	r1, r1, #4
 251 007c 6846     		mov	r0, sp
 252 007e FFF7FEFF 		bl	memcpy
 253              	.LVL29:
  93:drawer.c      ****         tempBuf[strLenght] = '\0';                                  // Null-terminate string
 254              		.loc 1 93 0
 255 0082 08AB     		add	r3, sp, #32
 256 0084 1C44     		add	r4, r4, r3
 257              	.LVL30:
 258 0086 0023     		movs	r3, #0
 259 0088 04F8203C 		strb	r3, [r4, #-32]
  94:drawer.c      ****         
  95:drawer.c      ****         msgId->m_signal = 0;                            // MSG SIGNAL 0
 260              		.loc 1 95 0
 261 008c 88F80030 		strb	r3, [r8]
  96:drawer.c      ****         msgId->m_event = EVE_COLOR;                     // Color event
 262              		.loc 1 96 0
 263 0090 88F80130 		strb	r3, [r8, #1]
  97:drawer.c      ****         
  98:drawer.c      ****         me->command = DRAWER_CMD_COLOR;                 // Set color command
 264              		.loc 1 98 0
 265 0094 3B70     		strb	r3, [r7]
  99:drawer.c      ****         me->data.color = DRAWER__colorFromToken(tempBuf);// Convert color
 266              		.loc 1 99 0
 267 0096 6846     		mov	r0, sp
 268 0098 FFF7FEFF 		bl	DRAWER__colorFromToken
 269              	.LVL31:
 270 009c 7880     		strh	r0, [r7, #2]	@ movhi
 100:drawer.c      ****         
 101:drawer.c      ****         return RC_SUCCESS;
 271              		.loc 1 101 0
 272 009e 64E0     		b	.L16
 273              	.LVL32:
 274              	.L29:
  81:drawer.c      ****         }
 275              		.loc 1 81 0
 276 00a0 6FF00509 		mvn	r9, #5
 277 00a4 61E0     		b	.L16
 278              	.L30:
  86:drawer.c      ****         }
 279              		.loc 1 86 0
 280 00a6 6FF01409 		mvn	r9, #20
 281 00aa 5EE0     		b	.L16
 282              	.LVL33:
 283              	.L18:
 284              	.LBE2:
 102:drawer.c      ****     }
 103:drawer.c      ****     
 104:drawer.c      ****     // DRAW COMMAND FOUND
 105:drawer.c      ****     if(str == 'd'){
ARM GAS  C:\Users\agraw\AppData\Local\Temp\ccMWEdw4.s 			page 8


 285              		.loc 1 105 0
 286 00ac 642B     		cmp	r3, #100
 287 00ae 40D1     		bne	.L20
 106:drawer.c      **** 
 107:drawer.c      ****         // Read array of coordinates
 108:drawer.c      ****         if (PARSER_getNextToken(parser, &token) != RC_SUCCESS) {
 288              		.loc 1 108 0
 289 00b0 04A9     		add	r1, sp, #16
 290 00b2 2846     		mov	r0, r5
 291 00b4 FFF7FEFF 		bl	PARSER_getNextToken
 292              	.LVL34:
 293 00b8 8146     		mov	r9, r0
 294 00ba 0028     		cmp	r0, #0
 295 00bc 4DD1     		bne	.L31
 109:drawer.c      ****             return RC_ERROR_OVERRUN;
 110:drawer.c      ****         }
 111:drawer.c      ****         
 112:drawer.c      ****         // Expect array with 4 values
 113:drawer.c      ****         if(token.type != JSMN_ARRAY || token.size != 4){
 296              		.loc 1 113 0
 297 00be 9DF81030 		ldrb	r3, [sp, #16]	@ zero_extendqisi2
 298 00c2 022B     		cmp	r3, #2
 299 00c4 4CD1     		bne	.L32
 300              		.loc 1 113 0 is_stmt 0 discriminator 1
 301 00c6 079B     		ldr	r3, [sp, #28]
 302 00c8 042B     		cmp	r3, #4
 303 00ca 4CD1     		bne	.L33
 304 00cc 0026     		movs	r6, #0
 305 00ce 26E0     		b	.L21
 306              	.LVL35:
 307              	.L23:
 308              	.LBB3:
 309              	.LBB4:
 114:drawer.c      ****             return RC_ERROR_BAD_DATA;
 115:drawer.c      ****         }
 116:drawer.c      ****         
 117:drawer.c      ****         // Parse x1, y1, x2, y2
 118:drawer.c      ****         for(uint8_t i = 0; i < 4; i++){
 119:drawer.c      ****             if (PARSER_getNextToken(parser, &token) != RC_SUCCESS) {
 310              		.loc 1 119 0 is_stmt 1
 311 00d0 04A9     		add	r1, sp, #16
 312 00d2 2846     		mov	r0, r5
 313 00d4 FFF7FEFF 		bl	PARSER_getNextToken
 314              	.LVL36:
 315 00d8 D8B9     		cbnz	r0, .L34
 120:drawer.c      ****                 return RC_ERROR_OVERRUN;
 121:drawer.c      ****             }
 122:drawer.c      ****             
 123:drawer.c      ****             // Coordinates must be numbers
 124:drawer.c      ****             if (token.type != JSMN_PRIMITIVE) {
 316              		.loc 1 124 0
 317 00da 9DF81030 		ldrb	r3, [sp, #16]	@ zero_extendqisi2
 318 00de 082B     		cmp	r3, #8
 319 00e0 1AD1     		bne	.L35
 125:drawer.c      ****                 return RC_ERROR_BAD_DATA;
 126:drawer.c      ****             }
 127:drawer.c      **** 
ARM GAS  C:\Users\agraw\AppData\Local\Temp\ccMWEdw4.s 			page 9


 128:drawer.c      ****             uint16_t arrLength = token.end - token.start;
 320              		.loc 1 128 0
 321 00e2 0599     		ldr	r1, [sp, #20]
 322 00e4 069C     		ldr	r4, [sp, #24]
 323 00e6 641A     		subs	r4, r4, r1
 324 00e8 A4B2     		uxth	r4, r4
 325              	.LVL37:
 129:drawer.c      ****             
 130:drawer.c      ****             char tempBuf[16];
 131:drawer.c      ****             memcpy(tempBuf, &parser->content[token.start], arrLength);
 326              		.loc 1 131 0
 327 00ea 0831     		adds	r1, r1, #8
 328 00ec 2944     		add	r1, r1, r5
 329 00ee 2246     		mov	r2, r4
 330 00f0 0431     		adds	r1, r1, #4
 331 00f2 6846     		mov	r0, sp
 332 00f4 FFF7FEFF 		bl	memcpy
 333              	.LVL38:
 132:drawer.c      ****             tempBuf[arrLength] = '\0';
 334              		.loc 1 132 0
 335 00f8 08AB     		add	r3, sp, #32
 336 00fa 1C44     		add	r4, r4, r3
 337              	.LVL39:
 338 00fc 0023     		movs	r3, #0
 339 00fe 04F8203C 		strb	r3, [r4, #-32]
 133:drawer.c      ****             
 134:drawer.c      **** 
 135:drawer.c      ****             me->data.coordinate[i] = (uint16_t)atoi(tempBuf); // Convert to integer
 340              		.loc 1 135 0
 341 0102 6846     		mov	r0, sp
 342 0104 FFF7FEFF 		bl	atoi
 343              	.LVL40:
 344 0108 BB19     		adds	r3, r7, r6
 345 010a 9870     		strb	r0, [r3, #2]
 346              	.LBE4:
 118:drawer.c      ****             if (PARSER_getNextToken(parser, &token) != RC_SUCCESS) {
 347              		.loc 1 118 0
 348 010c 0136     		adds	r6, r6, #1
 349              	.LVL41:
 350 010e F6B2     		uxtb	r6, r6
 351              	.LVL42:
 352 0110 05E0     		b	.L21
 353              	.L34:
 354              	.LBB5:
 120:drawer.c      ****             }
 355              		.loc 1 120 0
 356 0112 6FF00509 		mvn	r9, #5
 357 0116 28E0     		b	.L16
 358              	.L35:
 125:drawer.c      ****             }
 359              		.loc 1 125 0
 360 0118 6FF01409 		mvn	r9, #20
 361 011c 25E0     		b	.L16
 362              	.LVL43:
 363              	.L21:
 364              	.LBE5:
 118:drawer.c      ****             if (PARSER_getNextToken(parser, &token) != RC_SUCCESS) {
ARM GAS  C:\Users\agraw\AppData\Local\Temp\ccMWEdw4.s 			page 10


 365              		.loc 1 118 0 discriminator 1
 366 011e 032E     		cmp	r6, #3
 367 0120 D6D9     		bls	.L23
 368              	.LBE3:
 136:drawer.c      ****         } 
 137:drawer.c      ****         
 138:drawer.c      ****         msgId->m_signal = 0;       
 369              		.loc 1 138 0
 370 0122 0023     		movs	r3, #0
 371 0124 88F80030 		strb	r3, [r8]
 139:drawer.c      ****         msgId->m_event = EVE_DRAW;      // Draw event
 372              		.loc 1 139 0
 373 0128 0123     		movs	r3, #1
 374 012a 88F80130 		strb	r3, [r8, #1]
 140:drawer.c      ****             
 141:drawer.c      ****         me->command = DRAWER_CMD_DRAW;  // Set draw command
 375              		.loc 1 141 0
 376 012e 3B70     		strb	r3, [r7]
 142:drawer.c      **** 
 143:drawer.c      ****         return RC_SUCCESS;
 377              		.loc 1 143 0
 378 0130 1BE0     		b	.L16
 379              	.LVL44:
 380              	.L20:
 144:drawer.c      ****     }
 145:drawer.c      ****     
 146:drawer.c      ****      // Roll back parser if command not recognized
 147:drawer.c      ****     parser->nextToken = savedIndex;
 381              		.loc 1 147 0
 382 0132 A5F8D648 		strh	r4, [r5, #2262]	@ movhi
 148:drawer.c      ****     return RC_ERROR_NOT_MATCH;
 383              		.loc 1 148 0
 384 0136 6FF01209 		mvn	r9, #18
 385 013a 16E0     		b	.L16
 386              	.LVL45:
 387              	.L24:
  48:drawer.c      ****     }
 388              		.loc 1 48 0
 389 013c 6FF01309 		mvn	r9, #19
 390 0140 13E0     		b	.L16
 391              	.L25:
 392 0142 6FF01309 		mvn	r9, #19
 393 0146 10E0     		b	.L16
 394              	.L26:
 395 0148 6FF01309 		mvn	r9, #19
 396 014c 0DE0     		b	.L16
 397              	.LVL46:
 398              	.L27:
  56:drawer.c      ****     }
 399              		.loc 1 56 0
 400 014e 6FF00509 		mvn	r9, #5
 401 0152 0AE0     		b	.L16
 402              	.L28:
  61:drawer.c      ****     }
 403              		.loc 1 61 0
 404 0154 6FF01209 		mvn	r9, #18
 405 0158 07E0     		b	.L16
ARM GAS  C:\Users\agraw\AppData\Local\Temp\ccMWEdw4.s 			page 11


 406              	.L31:
 109:drawer.c      ****         }
 407              		.loc 1 109 0
 408 015a 6FF00509 		mvn	r9, #5
 409 015e 04E0     		b	.L16
 410              	.L32:
 114:drawer.c      ****         }
 411              		.loc 1 114 0
 412 0160 6FF01409 		mvn	r9, #20
 413 0164 01E0     		b	.L16
 414              	.L33:
 415 0166 6FF01409 		mvn	r9, #20
 416              	.LVL47:
 417              	.L16:
 149:drawer.c      **** }
 418              		.loc 1 149 0 discriminator 1
 419 016a 4846     		mov	r0, r9
 420 016c 09B0     		add	sp, sp, #36
 421              		.cfi_def_cfa_offset 28
 422              		@ sp needed
 423 016e BDE8F083 		pop	{r4, r5, r6, r7, r8, r9, pc}
 424              		.cfi_endproc
 425              	.LFE118:
 426              		.size	DRAWER_getNextDrawCommand, .-DRAWER_getNextDrawCommand
 427 0172 00BF     		.section	.rodata.str1.4,"aMS",%progbits,1
 428              		.align	2
 429              	.LC0:
 430 0000 72656400 		.ascii	"red\000"
 431              	.LC1:
 432 0004 77686974 		.ascii	"white\000"
 432      6500
 433 000a 0000     		.space	2
 434              	.LC2:
 435 000c 626C7565 		.ascii	"blue\000"
 435      00
 436 0011 000000   		.space	3
 437              	.LC3:
 438 0014 626C6163 		.ascii	"black\000"
 438      6B00
 439 001a 0000     		.space	2
 440              	.LC4:
 441 001c 67726565 		.ascii	"green\000"
 441      6E00
 442 0022 0000     		.space	2
 443              	.LC5:
 444 0024 6379616E 		.ascii	"cyan\000"
 444      00
 445 0029 000000   		.space	3
 446              	.LC6:
 447 002c 79656C6C 		.ascii	"yellow\000"
 447      6F7700
 448 0033 00       		.space	1
 449              	.LC7:
 450 0034 62726F77 		.ascii	"brown\000"
 450      6E00
 451 003a 0000     		.space	2
 452              	.LC8:
ARM GAS  C:\Users\agraw\AppData\Local\Temp\ccMWEdw4.s 			page 12


 453 003c 67726179 		.ascii	"gray\000"
 453      00
 454              		.text
 455              	.Letext0:
 456              		.file 2 ".\\source\\bsw/global.h"
 457              		.file 3 "c:\\program files (x86)\\cypress\\psoc creator\\4.4\\psoc creator\\import\\gnu\\arm\\5.4.
 458              		.file 4 "c:\\program files (x86)\\cypress\\psoc creator\\4.4\\psoc creator\\import\\gnu\\arm\\5.4.
 459              		.file 5 ".\\source\\bsw\\tft/tft.h"
 460              		.file 6 ".\\source\\bsw/jsmn.h"
 461              		.file 7 ".\\source\\bsw/parser.h"
 462              		.file 8 "Generated_Source\\PSoC5/ErikaOS_1_common_ee_types.inc"
 463              		.file 9 "Generated_Source\\PSoC5/ErikaOS_1_cortex_mx_ee_cpu.inc"
 464              		.file 10 ".\\source\\bsw\\msg/message_cfg.h"
 465              		.file 11 ".\\source\\bsw/drawer.h"
 466              		.file 12 "Generated_Source\\PSoC5/ErikaOS_1_ee_oo_intfunc.inc"
 467              		.file 13 "Generated_Source\\PSoC5/ErikaOS_1_cortex_mx_ee_context.inc"
 468              		.file 14 "Generated_Source\\PSoC5/ErikaOS_1_common_ee_primitives.inc"
 469              		.file 15 "Generated_Source\\PSoC5/core_cm3.h"
 470              		.file 16 "c:\\program files (x86)\\cypress\\psoc creator\\4.4\\psoc creator\\import\\gnu\\arm\\5.4
 471              		.file 17 "c:\\program files (x86)\\cypress\\psoc creator\\4.4\\psoc creator\\import\\gnu\\arm\\5.4