ARM GAS  C:\Users\agraw\AppData\Local\Temp\ccWhtEoP.s 			page 1


   1              		.syntax unified
   2              		.cpu cortex-m3
   3              		.fpu softvfp
   4              		.eabi_attribute 20, 1
   5              		.eabi_attribute 21, 1
   6              		.eabi_attribute 23, 3
   7              		.eabi_attribute 24, 1
   8              		.eabi_attribute 25, 1
   9              		.eabi_attribute 26, 1
  10              		.eabi_attribute 30, 1
  11              		.eabi_attribute 34, 1
  12              		.eabi_attribute 18, 4
  13              		.thumb
  14              		.syntax unified
  15              		.file	"message.c"
  16              		.text
  17              	.Ltext0:
  18              		.cfi_sections	.debug_frame
  19              		.section	.text.MSG_waitNextMessage,"ax",%progbits
  20              		.align	2
  21              		.global	MSG_waitNextMessage
  22              		.thumb
  23              		.thumb_func
  24              		.type	MSG_waitNextMessage, %function
  25              	MSG_waitNextMessage:
  26              	.LFB118:
  27              		.file 1 "source\\bsw\\msg\\message.c"
   1:source\bsw\msg/message.c **** /**
   2:source\bsw\msg/message.c **** * \file message.c
   3:source\bsw\msg/message.c **** * \author P. Fromm
   4:source\bsw\msg/message.c **** * \date 26.7.22
   5:source\bsw\msg/message.c **** *
   6:source\bsw\msg/message.c **** * \brief Simple messaging system supporting messages of variable length
   7:source\bsw\msg/message.c **** *
   8:source\bsw\msg/message.c **** * \copyright Copyright ©2016
   9:source\bsw\msg/message.c **** * Department of electrical engineering and information technology, Hochschule Darmstadt - Universit
  10:source\bsw\msg/message.c **** * Permission to use, copy, modify, and distribute this software and its documentation for education
  11:source\bsw\msg/message.c **** * (unless permitted by h_da) and official h_da projects, is hereby granted for enrolled students of
  12:source\bsw\msg/message.c **** * this paragraph and the following paragraph appear in all copies, modifications, and distributions
  13:source\bsw\msg/message.c **** * Contact Prof.Dr.-Ing. Peter Fromm, peter.fromm@h-da.de, Birkenweg 8 64295 Darmstadt - GERMANY for
  14:source\bsw\msg/message.c **** *
  15:source\bsw\msg/message.c **** * \warning This software is a PROTOTYPE version and is not designed or intended for use in producti
  16:source\bsw\msg/message.c **** * The user represents and warrants that it will NOT use or redistribute the Software for such purpo
  17:source\bsw\msg/message.c **** * This prototype is for research purposes only. This software is provided "AS IS," without a warran
  18:source\bsw\msg/message.c **** */
  19:source\bsw\msg/message.c **** 
  20:source\bsw\msg/message.c **** /*****************************************************************************/
  21:source\bsw\msg/message.c **** /* Include files                                                             */
  22:source\bsw\msg/message.c **** /*****************************************************************************/
  23:source\bsw\msg/message.c **** #include "stdlib.h"
  24:source\bsw\msg/message.c **** 
  25:source\bsw\msg/message.c **** #include "message.h"
  26:source\bsw\msg/message.c **** #include "logging.h"
  27:source\bsw\msg/message.c **** 
  28:source\bsw\msg/message.c **** /*****************************************************************************/
  29:source\bsw\msg/message.c **** /* Local pre-processor symbols/macros ('#define')                            */
  30:source\bsw\msg/message.c **** /*****************************************************************************/
ARM GAS  C:\Users\agraw\AppData\Local\Temp\ccWhtEoP.s 			page 2


  31:source\bsw\msg/message.c **** 
  32:source\bsw\msg/message.c **** //Heap symbols from linker to check correct allocation
  33:source\bsw\msg/message.c **** extern void* __cy_heap_start;
  34:source\bsw\msg/message.c **** extern void* __cy_heap_end;
  35:source\bsw\msg/message.c **** 
  36:source\bsw\msg/message.c **** /*****************************************************************************/
  37:source\bsw\msg/message.c **** /* Global variable definitions (declared in header file with 'extern')       */
  38:source\bsw\msg/message.c **** /*****************************************************************************/
  39:source\bsw\msg/message.c **** 
  40:source\bsw\msg/message.c **** /*****************************************************************************/
  41:source\bsw\msg/message.c **** /* Local type definitions ('typedef')                                        */
  42:source\bsw\msg/message.c **** /*****************************************************************************/
  43:source\bsw\msg/message.c **** 
  44:source\bsw\msg/message.c **** /*****************************************************************************/
  45:source\bsw\msg/message.c **** /* Local variable definitions ('static')                                     */
  46:source\bsw\msg/message.c **** /*****************************************************************************/
  47:source\bsw\msg/message.c **** 
  48:source\bsw\msg/message.c **** 
  49:source\bsw\msg/message.c **** 
  50:source\bsw\msg/message.c **** /*****************************************************************************/
  51:source\bsw\msg/message.c **** /* Local function prototypes ('static')                                      */
  52:source\bsw\msg/message.c **** /*****************************************************************************/
  53:source\bsw\msg/message.c **** 
  54:source\bsw\msg/message.c **** /**
  55:source\bsw\msg/message.c ****  * Will check if the allocated adress is in the heap area
  56:source\bsw\msg/message.c ****  * Limitation: Size of the allocated memory is not checked
  57:source\bsw\msg/message.c ****  */
  58:source\bsw\msg/message.c **** RC_t MSG_checkAllocation(void* adr);
  59:source\bsw\msg/message.c **** 
  60:source\bsw\msg/message.c **** /*****************************************************************************/
  61:source\bsw\msg/message.c **** /* Function implementation - global ('extern') and local ('static')          */
  62:source\bsw\msg/message.c **** /*****************************************************************************/
  63:source\bsw\msg/message.c **** 
  64:source\bsw\msg/message.c **** /**
  65:source\bsw\msg/message.c ****  * Initialises the ringbuffer and sets up the memory for the metadata
  66:source\bsw\msg/message.c ****  * \param MSG_messagebox_t *const me    : [IN/OUT] Message Box Object
  67:source\bsw\msg/message.c ****  * \param uint16_t const size           : [IN] Size of the ringbuffer
  68:source\bsw\msg/message.c ****  * \param EventMaskType const ev        : [IN] Event which will be fired in case of a new message
  69:source\bsw\msg/message.c ****  * \param TaskType const task           : [IN] Receiver task of the event
  70:source\bsw\msg/message.c ****  * \param ResourceType const res        : [IN] Ressource to protect critical region
  71:source\bsw\msg/message.c ****  * \return RC_t: RC_SUCCESS in case of no error else error code
  72:source\bsw\msg/message.c ****  */
  73:source\bsw\msg/message.c **** RC_t MSG_init(MSG_messagebox_t *const me, uint16_t const size, EventMaskType const ev, TaskType con
  74:source\bsw\msg/message.c **** {
  75:source\bsw\msg/message.c ****     me->m_ev = ev;
  76:source\bsw\msg/message.c ****     me->m_task = task;
  77:source\bsw\msg/message.c ****     me->m_ressource = res;
  78:source\bsw\msg/message.c ****     me->m_readCount = 0;
  79:source\bsw\msg/message.c ****     me->m_writeCount = 0;
  80:source\bsw\msg/message.c ****     me->m_readIdx = 0;
  81:source\bsw\msg/message.c ****     me->m_writeIdx = 0;
  82:source\bsw\msg/message.c ****     
  83:source\bsw\msg/message.c ****     if (size > 1)
  84:source\bsw\msg/message.c ****     {
  85:source\bsw\msg/message.c ****         me->m_size = size;
  86:source\bsw\msg/message.c ****     }
  87:source\bsw\msg/message.c ****     else
ARM GAS  C:\Users\agraw\AppData\Local\Temp\ccWhtEoP.s 			page 3


  88:source\bsw\msg/message.c ****     {
  89:source\bsw\msg/message.c ****         me->m_size = 10;
  90:source\bsw\msg/message.c ****     }
  91:source\bsw\msg/message.c ****     
  92:source\bsw\msg/message.c ****     me->m_content = (MSG_message_t*)malloc(me->m_size * sizeof(MSG_message_t));
  93:source\bsw\msg/message.c ****     if (0 == me->m_content) return RC_ERROR_MEMORY;
  94:source\bsw\msg/message.c ****     
  95:source\bsw\msg/message.c ****     for (uint16 i = 0; i < me->m_size; i++) 
  96:source\bsw\msg/message.c ****     {
  97:source\bsw\msg/message.c ****         me->m_content[i].m_size = 0;
  98:source\bsw\msg/message.c **** #ifdef MSG_STATIC_ALLOCATION        
  99:source\bsw\msg/message.c ****         me->m_content[i].mp_memory = malloc(MSG_STATIC_ALLOCATION_SIZE);
 100:source\bsw\msg/message.c ****         if (RC_SUCCESS != MSG_checkAllocation(me->m_content[i].mp_memory))
 101:source\bsw\msg/message.c ****         {
 102:source\bsw\msg/message.c ****             LOG_E("MSG","Error allocating static memory");
 103:source\bsw\msg/message.c ****         }
 104:source\bsw\msg/message.c **** #else
 105:source\bsw\msg/message.c **** 
 106:source\bsw\msg/message.c ****         me->m_content[i].mp_memory = 0;
 107:source\bsw\msg/message.c **** #endif    
 108:source\bsw\msg/message.c ****     }
 109:source\bsw\msg/message.c ****     
 110:source\bsw\msg/message.c ****     return RC_SUCCESS;
 111:source\bsw\msg/message.c **** }
 112:source\bsw\msg/message.c ****   
 113:source\bsw\msg/message.c **** #ifndef MSG_STATIC_ALLOCATION
 114:source\bsw\msg/message.c **** 
 115:source\bsw\msg/message.c **** /**
 116:source\bsw\msg/message.c ****  * Send a message by creating a temporary transfer buffer, copying the data into this buffer and fi
 117:source\bsw\msg/message.c ****  * \param MSG_messagebox_t *const me    : [IN/OUT] Message Box Object
 118:source\bsw\msg/message.c ****  * \param void const* const pData       : [IN] Data to be transmitted
 119:source\bsw\msg/message.c ****  * \param uint16_t const size           : [IN] Size of the transmitted data
 120:source\bsw\msg/message.c ****  * \param MSG_id_t id                   : [IN] Identifier of the message
 121:source\bsw\msg/message.c ****  * \return RC_t: RC_SUCCESS in case of no error else error code
 122:source\bsw\msg/message.c ****  */    
 123:source\bsw\msg/message.c **** RC_t MSG_sendMessage(MSG_messagebox_t *const me, void const* const pData, uint16_t const size, MSG_
 124:source\bsw\msg/message.c **** {
 125:source\bsw\msg/message.c ****     
 126:source\bsw\msg/message.c ****     RC_t res = RC_SUCCESS;
 127:source\bsw\msg/message.c ****     
 128:source\bsw\msg/message.c **** #ifdef MSG_TIME_ANALYSIS
 129:source\bsw\msg/message.c ****     MSG_startMeasurement();
 130:source\bsw\msg/message.c **** #endif    
 131:source\bsw\msg/message.c ****     
 132:source\bsw\msg/message.c ****     if (MSG_getFillLevel(me) <  me->m_size)
 133:source\bsw\msg/message.c ****     {
 134:source\bsw\msg/message.c ****         
 135:source\bsw\msg/message.c ****         void* pBuffer = 0;
 136:source\bsw\msg/message.c ****         
 137:source\bsw\msg/message.c ****         //Critical section starts
 138:source\bsw\msg/message.c ****         
 139:source\bsw\msg/message.c ****         if (me->m_ressource != 0) GetResource(me->m_ressource);
 140:source\bsw\msg/message.c ****         MSG_DI;
 141:source\bsw\msg/message.c ****         
 142:source\bsw\msg/message.c ****         //Clear the old message buffer and reallocate memory unless we can reuse it (same size)
 143:source\bsw\msg/message.c ****         if (size != me->m_content[me->m_writeIdx].m_size)
 144:source\bsw\msg/message.c ****         {
ARM GAS  C:\Users\agraw\AppData\Local\Temp\ccWhtEoP.s 			page 4


 145:source\bsw\msg/message.c ****             if (0 != me->m_content[me->m_writeIdx].m_size)
 146:source\bsw\msg/message.c ****             {
 147:source\bsw\msg/message.c ****                 //Previous memory does not fit, let's clear it
 148:source\bsw\msg/message.c ****                 free(me->m_content[me->m_writeIdx].mp_memory);
 149:source\bsw\msg/message.c ****                 
 150:source\bsw\msg/message.c ****                 //And set it to size 0, as no payload may be required
 151:source\bsw\msg/message.c ****                 //Will happen later as well, but just to be on the safe side....
 152:source\bsw\msg/message.c ****                 me->m_content[me->m_writeIdx].mp_memory = 0;
 153:source\bsw\msg/message.c ****                 me->m_content[me->m_writeIdx].m_size = 0;
 154:source\bsw\msg/message.c ****             }        
 155:source\bsw\msg/message.c **** 
 156:source\bsw\msg/message.c ****             //Allocate memory for transmission, if needed
 157:source\bsw\msg/message.c ****             if (0 != pData && 0 != size)
 158:source\bsw\msg/message.c ****             {
 159:source\bsw\msg/message.c ****                 pBuffer = malloc(size); 
 160:source\bsw\msg/message.c ****                 res = MSG_checkAllocation(pBuffer);
 161:source\bsw\msg/message.c ****                 if (RC_SUCCESS != res) 
 162:source\bsw\msg/message.c ****                 {
 163:source\bsw\msg/message.c ****                     pBuffer = 0;
 164:source\bsw\msg/message.c ****                 }
 165:source\bsw\msg/message.c ****             }
 166:source\bsw\msg/message.c ****         }
 167:source\bsw\msg/message.c ****         else
 168:source\bsw\msg/message.c ****         {   
 169:source\bsw\msg/message.c ****             //Existing buffer will do
 170:source\bsw\msg/message.c ****             pBuffer = me->m_content[me->m_writeIdx].mp_memory;
 171:source\bsw\msg/message.c ****         }
 172:source\bsw\msg/message.c **** 
 173:source\bsw\msg/message.c ****         //We now have a valid buffer, let's copy the data, at least if we have some
 174:source\bsw\msg/message.c ****         if (0 != pData && 0 != size)
 175:source\bsw\msg/message.c ****         {
 176:source\bsw\msg/message.c ****             //Deep copy of the data into the allocated memory
 177:source\bsw\msg/message.c ****             for (uint16_t i = 0; i < size; i++)
 178:source\bsw\msg/message.c ****             {
 179:source\bsw\msg/message.c ****                 ((uint8*)pBuffer)[i] = ((uint8*)pData)[i]; 
 180:source\bsw\msg/message.c ****             }
 181:source\bsw\msg/message.c ****         } 
 182:source\bsw\msg/message.c ****         
 183:source\bsw\msg/message.c ****         //Copy the content into the message
 184:source\bsw\msg/message.c ****         me->m_content[me->m_writeIdx].m_size = size;     
 185:source\bsw\msg/message.c ****         me->m_content[me->m_writeIdx].m_msgId = id;     
 186:source\bsw\msg/message.c ****         me->m_content[me->m_writeIdx].mp_memory = pBuffer;  
 187:source\bsw\msg/message.c **** 
 188:source\bsw\msg/message.c ****         me->m_writeCount++;  
 189:source\bsw\msg/message.c ****         me->m_writeIdx++;                  
 190:source\bsw\msg/message.c ****         me->m_writeIdx %= me->m_size;     
 191:source\bsw\msg/message.c ****         
 192:source\bsw\msg/message.c ****         MSG_EI;
 193:source\bsw\msg/message.c ****         if (me->m_ressource != 0) ReleaseResource(me->m_ressource);
 194:source\bsw\msg/message.c ****         
 195:source\bsw\msg/message.c ****         SetEvent(me->m_task, me->m_ev);    
 196:source\bsw\msg/message.c ****     }
 197:source\bsw\msg/message.c ****     else
 198:source\bsw\msg/message.c ****     {
 199:source\bsw\msg/message.c ****         LOG_E("MSG","MSG_sendMessage buffer full");
 200:source\bsw\msg/message.c ****         CEH_report(&CEH, CEH_URTE_MESSAGE_BUFFERFULL, 0);
 201:source\bsw\msg/message.c ****         
ARM GAS  C:\Users\agraw\AppData\Local\Temp\ccWhtEoP.s 			page 5


 202:source\bsw\msg/message.c ****         res =  RC_ERROR_BUFFER_FULL;       
 203:source\bsw\msg/message.c ****     }
 204:source\bsw\msg/message.c ****     
 205:source\bsw\msg/message.c ****     return res;
 206:source\bsw\msg/message.c ****     
 207:source\bsw\msg/message.c **** }
 208:source\bsw\msg/message.c **** 
 209:source\bsw\msg/message.c **** 
 210:source\bsw\msg/message.c **** 
 211:source\bsw\msg/message.c **** 
 212:source\bsw\msg/message.c **** #else
 213:source\bsw\msg/message.c **** 
 214:source\bsw\msg/message.c **** /**
 215:source\bsw\msg/message.c ****  * Send a message by creating a temporary transfer buffer, copying the data into this buffer and fi
 216:source\bsw\msg/message.c ****  * \param MSG_messagebox_t *const me    : [IN/OUT] Message Box Object
 217:source\bsw\msg/message.c ****  * \param void const* const pData       : [IN] Data to be transmitted
 218:source\bsw\msg/message.c ****  * \param uint16_t const size           : [IN] Size of the transmitted data
 219:source\bsw\msg/message.c ****  * \param MSG_id_t id                   : [IN] Identifier of the message
 220:source\bsw\msg/message.c ****  * \return RC_t: RC_SUCCESS in case of no error else error code
 221:source\bsw\msg/message.c ****  */    
 222:source\bsw\msg/message.c **** RC_t MSG_sendMessage(MSG_messagebox_t *const me, void const* const pData, uint16_t const size, MSG_
 223:source\bsw\msg/message.c **** {
 224:source\bsw\msg/message.c ****     RC_t res = RC_SUCCESS;
 225:source\bsw\msg/message.c ****     
 226:source\bsw\msg/message.c **** #ifdef MSG_TIME_ANALYSIS
 227:source\bsw\msg/message.c ****     MSG_startMeasurement();
 228:source\bsw\msg/message.c **** #endif    
 229:source\bsw\msg/message.c ****     
 230:source\bsw\msg/message.c ****     //LOG_D("MSG","Sending id %d size %d", id.m_signal, size);
 231:source\bsw\msg/message.c **** 
 232:source\bsw\msg/message.c ****     if (MSG_getFillLevel(me) <  me->m_size)
 233:source\bsw\msg/message.c ****     {
 234:source\bsw\msg/message.c ****         
 235:source\bsw\msg/message.c ****         if (me->m_ressource != 0) GetResource(me->m_ressource);
 236:source\bsw\msg/message.c ****         MSG_DI;
 237:source\bsw\msg/message.c ****         
 238:source\bsw\msg/message.c ****         uint8_t usedSize = size;
 239:source\bsw\msg/message.c ****         
 240:source\bsw\msg/message.c ****         void* pBuffer = me->m_content[me->m_writeIdx].mp_memory;
 241:source\bsw\msg/message.c **** 
 242:source\bsw\msg/message.c ****         //We need to check if the static buffer is large enough
 243:source\bsw\msg/message.c ****         if (size > MSG_STATIC_ALLOCATION_SIZE)
 244:source\bsw\msg/message.c ****         {
 245:source\bsw\msg/message.c ****             LOG_E("MSG","MSG_sendMessage static buffer too small, truncating transmitted message");
 246:source\bsw\msg/message.c ****             usedSize = MSG_STATIC_ALLOCATION_SIZE;
 247:source\bsw\msg/message.c ****             res = RC_ERROR_BAD_DATA;
 248:source\bsw\msg/message.c ****         }
 249:source\bsw\msg/message.c ****         
 250:source\bsw\msg/message.c ****         //Deep copy of the data into the allocated memory
 251:source\bsw\msg/message.c ****         for (uint16_t i = 0; i < usedSize; i++)
 252:source\bsw\msg/message.c ****         {
 253:source\bsw\msg/message.c ****             ((uint8*)pBuffer)[i] = ((uint8*)pData)[i]; 
 254:source\bsw\msg/message.c ****         }
 255:source\bsw\msg/message.c ****         
 256:source\bsw\msg/message.c ****         //COpy the content into the message
 257:source\bsw\msg/message.c ****         me->m_content[me->m_writeIdx].m_size = usedSize;     
 258:source\bsw\msg/message.c ****         me->m_content[me->m_writeIdx].m_msgId = id;     
ARM GAS  C:\Users\agraw\AppData\Local\Temp\ccWhtEoP.s 			page 6


 259:source\bsw\msg/message.c ****         
 260:source\bsw\msg/message.c ****         me->m_writeIdx++;                  
 261:source\bsw\msg/message.c ****         me->m_writeIdx %= me->m_size;     
 262:source\bsw\msg/message.c ****         me->m_writeCount++;                
 263:source\bsw\msg/message.c ****         
 264:source\bsw\msg/message.c ****         //MSG_dbgPrint(me);
 265:source\bsw\msg/message.c ****         
 266:source\bsw\msg/message.c ****         MSG_EI;
 267:source\bsw\msg/message.c ****         if (me->m_ressource != 0) ReleaseResource(me->m_ressource);
 268:source\bsw\msg/message.c ****         SetEvent(me->m_task, me->m_ev);    
 269:source\bsw\msg/message.c **** 
 270:source\bsw\msg/message.c ****     }
 271:source\bsw\msg/message.c ****     else
 272:source\bsw\msg/message.c ****     {
 273:source\bsw\msg/message.c ****         LOG_E("MSG","MSG_sendMessage buffer full");
 274:source\bsw\msg/message.c ****         res = RC_ERROR_BUFFER_FULL;       
 275:source\bsw\msg/message.c ****     }
 276:source\bsw\msg/message.c ****     
 277:source\bsw\msg/message.c ****     return res;   
 278:source\bsw\msg/message.c **** }
 279:source\bsw\msg/message.c ****  
 280:source\bsw\msg/message.c ****    
 281:source\bsw\msg/message.c **** #endif    
 282:source\bsw\msg/message.c **** 
 283:source\bsw\msg/message.c **** 
 284:source\bsw\msg/message.c **** /**
 285:source\bsw\msg/message.c ****  * Reads the message from the transfer buffer and releases the allocated memory
 286:source\bsw\msg/message.c ****  * \param MSG_messagebox_t *const me    : [IN/OUT] Message Box Object
 287:source\bsw\msg/message.c ****  * \param void *const pData             : [OUT] Pointer to the memory for storing the received mess
 288:source\bsw\msg/message.c ****  * \param uint16_t const size           : [IN] Size of the transmitted data. Will be compared with 
 289:source\bsw\msg/message.c ****  * \param MSG_id_t *const id            : [OUT] Identifier of the message
 290:source\bsw\msg/message.c ****  * \return RC_t: RC_SUCCESS in case of no error else error code
 291:source\bsw\msg/message.c ****  */ 
 292:source\bsw\msg/message.c **** RC_t MSG_receiveMessage(MSG_messagebox_t *const me, void* pData, uint16_t const size, MSG_id_t *con
 293:source\bsw\msg/message.c **** {
 294:source\bsw\msg/message.c ****     
 295:source\bsw\msg/message.c **** #ifdef MSG_TIME_ANALYSIS
 296:source\bsw\msg/message.c ****     MSG_stopMeasurement();
 297:source\bsw\msg/message.c **** #endif    
 298:source\bsw\msg/message.c **** 
 299:source\bsw\msg/message.c ****     if (MSG_getFillLevel(me) > 0)
 300:source\bsw\msg/message.c ****     {
 301:source\bsw\msg/message.c ****         //Get the content record from the postbox
 302:source\bsw\msg/message.c ****         uint16_t mSize = me->m_content[me->m_readIdx].m_size;
 303:source\bsw\msg/message.c ****         uint8_t* pBuffer = me->m_content[me->m_readIdx].mp_memory;
 304:source\bsw\msg/message.c ****         *id = me->m_content[me->m_readIdx].m_msgId;
 305:source\bsw\msg/message.c ****         //LOG_D("MB_recMessage","size tmd = %d, size stored = %d, buffer = %x", size, mSize, pBuffe
 306:source\bsw\msg/message.c **** 
 307:source\bsw\msg/message.c ****         if (mSize != size) 
 308:source\bsw\msg/message.c ****         {
 309:source\bsw\msg/message.c ****             LOG_E("MSG","MSG_receiveMessage bad size");
 310:source\bsw\msg/message.c ****             return RC_ERROR_BAD_PARAM;
 311:source\bsw\msg/message.c ****         }
 312:source\bsw\msg/message.c **** 
 313:source\bsw\msg/message.c ****         if (me->m_ressource != 0) GetResource(me->m_ressource);
 314:source\bsw\msg/message.c ****         MSG_DI;
 315:source\bsw\msg/message.c ****         
ARM GAS  C:\Users\agraw\AppData\Local\Temp\ccWhtEoP.s 			page 7


 316:source\bsw\msg/message.c ****         //Deep copy of the data into the allocated memory
 317:source\bsw\msg/message.c ****         for (uint16_t i = 0; i < size; i++)
 318:source\bsw\msg/message.c ****         {
 319:source\bsw\msg/message.c ****             ((uint8*)pData)[i] = ((uint8*)pBuffer)[i];
 320:source\bsw\msg/message.c ****         }
 321:source\bsw\msg/message.c **** 
 322:source\bsw\msg/message.c ****         //LOG_D("MB_recMessage","memory = %x, size = %d, data = %x, copied data %x",(uint8*)pBuffer
 323:source\bsw\msg/message.c ****         
 324:source\bsw\msg/message.c ****         //Release memory after transmission
 325:source\bsw\msg/message.c ****         //free(me->m_content[me->m_readIdx].mp_memory);
 326:source\bsw\msg/message.c ****         //me->m_content[me->m_readIdx].mp_memory = 0;
 327:source\bsw\msg/message.c ****         
 328:source\bsw\msg/message.c ****         me->m_readIdx++;
 329:source\bsw\msg/message.c ****         me->m_readIdx %= me->m_size;
 330:source\bsw\msg/message.c ****         me->m_readCount++;
 331:source\bsw\msg/message.c ****         
 332:source\bsw\msg/message.c ****         MSG_EI;
 333:source\bsw\msg/message.c ****         if (me->m_ressource != 0) ReleaseResource(me->m_ressource);
 334:source\bsw\msg/message.c **** 
 335:source\bsw\msg/message.c ****         return RC_SUCCESS;
 336:source\bsw\msg/message.c ****     }
 337:source\bsw\msg/message.c ****     else
 338:source\bsw\msg/message.c ****     {
 339:source\bsw\msg/message.c ****         LOG_I("MSG","MSG_receiveMessage buffer empty");
 340:source\bsw\msg/message.c ****         return RC_ERROR_BUFFER_EMTPY;
 341:source\bsw\msg/message.c ****     }
 342:source\bsw\msg/message.c **** }
 343:source\bsw\msg/message.c **** /**
 344:source\bsw\msg/message.c ****  * Returns the size of the next message in the buffer
 345:source\bsw\msg/message.c ****  * \param MSG_messagebox_t *const me    : [IN/OUT] Message Box Object
 346:source\bsw\msg/message.c ****  * \param uint16_t *const size          : [OUT] Size of the next message, 0 in case of no message
 347:source\bsw\msg/message.c ****  * \param MSG_id_t *const id            : [OUT] Identifier of the message
 348:source\bsw\msg/message.c ****  * \return RC_t: RC_SUCCESS in case of no error else error code
 349:source\bsw\msg/message.c ****  */ 
 350:source\bsw\msg/message.c **** RC_t MSG_getSizeAndIdOfNextMessage(MSG_messagebox_t *const me, uint16_t *const size, MSG_id_t *cons
 351:source\bsw\msg/message.c **** {
 352:source\bsw\msg/message.c ****     if (MSG_getFillLevel(me) > 0)
 353:source\bsw\msg/message.c ****     {
 354:source\bsw\msg/message.c ****         
 355:source\bsw\msg/message.c ****         *size = me->m_content[me->m_readIdx].m_size;
 356:source\bsw\msg/message.c ****         *id = me->m_content[me->m_readIdx].m_msgId;
 357:source\bsw\msg/message.c ****         //LOG_D("MB_getSize","readIdx = %d, size = %d", me->m_readIdx, *size);
 358:source\bsw\msg/message.c ****         
 359:source\bsw\msg/message.c ****         return RC_SUCCESS;
 360:source\bsw\msg/message.c ****     }
 361:source\bsw\msg/message.c ****     else
 362:source\bsw\msg/message.c ****     {
 363:source\bsw\msg/message.c ****         LOG_I("MSG","MSG_getSizeAndIdOfNextMessage empty buffer");
 364:source\bsw\msg/message.c ****         *size = 0;
 365:source\bsw\msg/message.c ****         return RC_ERROR_BUFFER_EMTPY;
 366:source\bsw\msg/message.c ****     }
 367:source\bsw\msg/message.c **** }
 368:source\bsw\msg/message.c **** 
 369:source\bsw\msg/message.c **** /**
 370:source\bsw\msg/message.c ****  * Wait for the next message (using OS services)
 371:source\bsw\msg/message.c ****  * \param MSG_messagebox_t *const me    : [IN/OUT] Message Box Object
 372:source\bsw\msg/message.c ****  * \return RC_t: RC_SUCCESS in case of no error else error code
ARM GAS  C:\Users\agraw\AppData\Local\Temp\ccWhtEoP.s 			page 8


 373:source\bsw\msg/message.c ****  */ 
 374:source\bsw\msg/message.c **** RC_t MSG_waitNextMessage(MSG_messagebox_t *const me)
 375:source\bsw\msg/message.c **** {
  28              		.loc 1 375 0
  29              		.cfi_startproc
  30              		@ args = 0, pretend = 0, frame = 0
  31              		@ frame_needed = 0, uses_anonymous_args = 0
  32              	.LVL0:
  33 0000 10B5     		push	{r4, lr}
  34              		.cfi_def_cfa_offset 8
  35              		.cfi_offset 4, -8
  36              		.cfi_offset 14, -4
  37 0002 0446     		mov	r4, r0
 376:source\bsw\msg/message.c ****     WaitEvent(me->m_ev);
  38              		.loc 1 376 0
  39 0004 4069     		ldr	r0, [r0, #20]
  40              	.LVL1:
  41 0006 FFF7FEFF 		bl	EE_oo_WaitEvent
  42              	.LVL2:
 377:source\bsw\msg/message.c ****     ClearEvent(me->m_ev);
  43              		.loc 1 377 0
  44 000a 6069     		ldr	r0, [r4, #20]
  45 000c FFF7FEFF 		bl	EE_oo_ClearEvent
  46              	.LVL3:
 378:source\bsw\msg/message.c ****     
 379:source\bsw\msg/message.c ****     return RC_SUCCESS;
 380:source\bsw\msg/message.c **** }
  47              		.loc 1 380 0
  48 0010 0020     		movs	r0, #0
  49 0012 10BD     		pop	{r4, pc}
  50              		.cfi_endproc
  51              	.LFE118:
  52              		.size	MSG_waitNextMessage, .-MSG_waitNextMessage
  53              		.section	.text.MSG_getFillLevel,"ax",%progbits
  54              		.align	2
  55              		.global	MSG_getFillLevel
  56              		.thumb
  57              		.thumb_func
  58              		.type	MSG_getFillLevel, %function
  59              	MSG_getFillLevel:
  60              	.LFB121:
 381:source\bsw\msg/message.c **** 
 382:source\bsw\msg/message.c **** 
 383:source\bsw\msg/message.c **** 
 384:source\bsw\msg/message.c **** /**
 385:source\bsw\msg/message.c ****  * Debug print of the message buffer
 386:source\bsw\msg/message.c ****  * \param MSG_messagebox_t *const me    : [IN/OUT] Message Box Object
 387:source\bsw\msg/message.c ****  */
 388:source\bsw\msg/message.c **** RC_t MSG_dbgPrint(MSG_messagebox_t *const me)
 389:source\bsw\msg/message.c **** {
 390:source\bsw\msg/message.c ****     LOG_D("MSG","Size = %d, Filllevel = %d, ReadIndex = %d, WriteIndex = %d", me->m_size, MSG_getFi
 391:source\bsw\msg/message.c ****     
 392:source\bsw\msg/message.c ****     for (uint16_t i = 0; i < me->m_size; i++)
 393:source\bsw\msg/message.c ****     {
 394:source\bsw\msg/message.c ****         LOG_D("   CONT", "[%d] Adress = %x, Size = %d",i, me->m_content[i].mp_memory, me->m_content
 395:source\bsw\msg/message.c ****     }
 396:source\bsw\msg/message.c ****     
ARM GAS  C:\Users\agraw\AppData\Local\Temp\ccWhtEoP.s 			page 9


 397:source\bsw\msg/message.c ****     return RC_SUCCESS;
 398:source\bsw\msg/message.c **** }
 399:source\bsw\msg/message.c **** 
 400:source\bsw\msg/message.c **** /**
 401:source\bsw\msg/message.c ****  * Provides references to the metadata and payload. Better interface for RTE
 402:source\bsw\msg/message.c ****  * \param MSG_messagebox_t *const me    : [IN/OUT] Message Box Object
 403:source\bsw\msg/message.c ****  * \param void** ppData                 : [OUT] Pointer to the memory for storing the received mess
 404:source\bsw\msg/message.c ****  * \param uint16_t *const psize         : [OUT] Size of the transmitted data. 
 405:source\bsw\msg/message.c ****  * \param MSG_id_t *const id            : [OUT] Identifier of the message
 406:source\bsw\msg/message.c ****  * \return RC_t: RC_SUCCESS in case of no error else error code
 407:source\bsw\msg/message.c ****  */ 
 408:source\bsw\msg/message.c **** RC_t MSG_receiveMessageRef(MSG_messagebox_t *const me, void** ppData, uint16_t *const psize, MSG_id
 409:source\bsw\msg/message.c **** {
 410:source\bsw\msg/message.c ****     
 411:source\bsw\msg/message.c **** #ifdef MSG_TIME_ANALYSIS
 412:source\bsw\msg/message.c ****     MSG_stopMeasurement();
 413:source\bsw\msg/message.c **** #endif      
 414:source\bsw\msg/message.c ****     
 415:source\bsw\msg/message.c ****     if (MSG_getFillLevel(me) > 0)
 416:source\bsw\msg/message.c ****     {
 417:source\bsw\msg/message.c ****         if (me->m_ressource != 0) GetResource(me->m_ressource);
 418:source\bsw\msg/message.c ****         MSG_DI;
 419:source\bsw\msg/message.c ****                 
 420:source\bsw\msg/message.c ****         //Get the content record from the postbox
 421:source\bsw\msg/message.c ****         *psize = me->m_content[me->m_readIdx].m_size;
 422:source\bsw\msg/message.c ****         *ppData = me->m_content[me->m_readIdx].mp_memory;
 423:source\bsw\msg/message.c ****         *id = me->m_content[me->m_readIdx].m_msgId;
 424:source\bsw\msg/message.c ****         
 425:source\bsw\msg/message.c ****         if (0 != *ppData && RC_SUCCESS != MSG_checkAllocation(*ppData) )
 426:source\bsw\msg/message.c ****         {
 427:source\bsw\msg/message.c ****             //This should not happen, as the allocation is protected on the sending side
 428:source\bsw\msg/message.c ****             //0 is transmitted in case no payload, therefore filtered out
 429:source\bsw\msg/message.c ****             LOG_E("MSG","MSG_receiveMessageRef got wrong adress %x", (uint32_t)*ppData);
 430:source\bsw\msg/message.c ****         }        
 431:source\bsw\msg/message.c ****         
 432:source\bsw\msg/message.c ****         me->m_readIdx++;
 433:source\bsw\msg/message.c ****         me->m_readIdx %= me->m_size;
 434:source\bsw\msg/message.c ****         me->m_readCount++;
 435:source\bsw\msg/message.c ****         
 436:source\bsw\msg/message.c ****         MSG_EI;
 437:source\bsw\msg/message.c ****         if (me->m_ressource != 0) ReleaseResource(me->m_ressource);
 438:source\bsw\msg/message.c ****         
 439:source\bsw\msg/message.c ****         return RC_SUCCESS;
 440:source\bsw\msg/message.c ****     }
 441:source\bsw\msg/message.c ****     else
 442:source\bsw\msg/message.c ****     {
 443:source\bsw\msg/message.c ****         LOG_I("MSG","MSG_receiveMessageRef buffer empty");
 444:source\bsw\msg/message.c ****         return RC_ERROR_BUFFER_EMTPY;
 445:source\bsw\msg/message.c ****     }
 446:source\bsw\msg/message.c ****     
 447:source\bsw\msg/message.c **** }
 448:source\bsw\msg/message.c **** 
 449:source\bsw\msg/message.c **** /**
 450:source\bsw\msg/message.c ****  * Wait for the next message (using OS services)
 451:source\bsw\msg/message.c ****  * \param MSG_messagebox_t *const me    : [IN/OUT] Message Box Object
 452:source\bsw\msg/message.c ****  * \return uint16_t: Number of messaages contained in the buffer
 453:source\bsw\msg/message.c ****  */ 
ARM GAS  C:\Users\agraw\AppData\Local\Temp\ccWhtEoP.s 			page 10


 454:source\bsw\msg/message.c **** uint16_t MSG_getFillLevel(MSG_messagebox_t *const me)
 455:source\bsw\msg/message.c **** {
  61              		.loc 1 455 0
  62              		.cfi_startproc
  63              		@ args = 0, pretend = 0, frame = 0
  64              		@ frame_needed = 0, uses_anonymous_args = 0
  65              		@ link register save eliminated.
  66              	.LVL4:
 456:source\bsw\msg/message.c ****     return (uint16_t)(me->m_writeCount - me->m_readCount);
  67              		.loc 1 456 0
  68 0000 C368     		ldr	r3, [r0, #12]
  69 0002 0069     		ldr	r0, [r0, #16]
  70              	.LVL5:
  71 0004 181A     		subs	r0, r3, r0
 457:source\bsw\msg/message.c **** }
  72              		.loc 1 457 0
  73 0006 80B2     		uxth	r0, r0
  74 0008 7047     		bx	lr
  75              		.cfi_endproc
  76              	.LFE121:
  77              		.size	MSG_getFillLevel, .-MSG_getFillLevel
  78 000a 00BF     		.section	.text.MSG_sendMessage,"ax",%progbits
  79              		.align	2
  80              		.global	MSG_sendMessage
  81              		.thumb
  82              		.thumb_func
  83              		.type	MSG_sendMessage, %function
  84              	MSG_sendMessage:
  85              	.LFB115:
 223:source\bsw\msg/message.c ****     RC_t res = RC_SUCCESS;
  86              		.loc 1 223 0
  87              		.cfi_startproc
  88              		@ args = 0, pretend = 0, frame = 176
  89              		@ frame_needed = 0, uses_anonymous_args = 0
  90              	.LVL6:
  91 0000 F0B5     		push	{r4, r5, r6, r7, lr}
  92              		.cfi_def_cfa_offset 20
  93              		.cfi_offset 4, -20
  94              		.cfi_offset 5, -16
  95              		.cfi_offset 6, -12
  96              		.cfi_offset 7, -8
  97              		.cfi_offset 14, -4
  98 0002 ADB0     		sub	sp, sp, #180
  99              		.cfi_def_cfa_offset 200
 100 0004 0446     		mov	r4, r0
 101 0006 0D46     		mov	r5, r1
 102 0008 1746     		mov	r7, r2
 103 000a ADF80430 		strh	r3, [sp, #4]	@ movhi
 104              	.LVL7:
 232:source\bsw\msg/message.c ****     {
 105              		.loc 1 232 0
 106 000e FFF7FEFF 		bl	MSG_getFillLevel
 107              	.LVL8:
 108 0012 A388     		ldrh	r3, [r4, #4]
 109 0014 9842     		cmp	r0, r3
 110 0016 4CD2     		bcs	.L5
 111              	.LBB2:
ARM GAS  C:\Users\agraw\AppData\Local\Temp\ccWhtEoP.s 			page 11


 235:source\bsw\msg/message.c ****         MSG_DI;
 112              		.loc 1 235 0
 113 0018 E069     		ldr	r0, [r4, #28]
 114 001a 08B1     		cbz	r0, .L6
 235:source\bsw\msg/message.c ****         MSG_DI;
 115              		.loc 1 235 0 is_stmt 0 discriminator 1
 116 001c FFF7FEFF 		bl	EE_oo_GetResource
 117              	.LVL9:
 118              	.L6:
 236:source\bsw\msg/message.c ****         
 119              		.loc 1 236 0 is_stmt 1
 120              		.syntax unified
 121              	@ 236 "source\bsw\msg\message.c" 1
 122 0020 72B6     		CPSID   i
 123              	@ 0 "" 2
 238:source\bsw\msg/message.c ****         
 124              		.loc 1 238 0
 125              		.thumb
 126              		.syntax unified
 127 0022 F9B2     		uxtb	r1, r7
 128              	.LVL10:
 240:source\bsw\msg/message.c **** 
 129              		.loc 1 240 0
 130 0024 2368     		ldr	r3, [r4]
 131 0026 E288     		ldrh	r2, [r4, #6]
 132 0028 53F83260 		ldr	r6, [r3, r2, lsl #3]
 133              	.LVL11:
 243:source\bsw\msg/message.c ****         {
 134              		.loc 1 243 0
 135 002c 322F     		cmp	r7, #50
 136 002e 14D9     		bls	.L12
 137              	.LBB3:
 245:source\bsw\msg/message.c ****             usedSize = MSG_STATIC_ALLOCATION_SIZE;
 138              		.loc 1 245 0 discriminator 1
 139 0030 2CAF     		add	r7, sp, #176
 140 0032 0323     		movs	r3, #3
 141 0034 07F8A83D 		strb	r3, [r7, #-168]!
 142 0038 2E4B     		ldr	r3, .L14
 143 003a 1868     		ldr	r0, [r3]	@ unaligned
 144 003c CDF80900 		str	r0, [sp, #9]	@ unaligned
 145 0040 4822     		movs	r2, #72
 146 0042 2D49     		ldr	r1, .L14+4
 147              	.LVL12:
 148 0044 0DF11900 		add	r0, sp, #25
 149 0048 FFF7FEFF 		bl	memcpy
 150              	.LVL13:
 151 004c 3846     		mov	r0, r7
 152 004e FFF7FEFF 		bl	LOG_send
 153              	.LVL14:
 154              	.LBE3:
 246:source\bsw\msg/message.c ****             res = RC_ERROR_BAD_DATA;
 155              		.loc 1 246 0 discriminator 1
 156 0052 3221     		movs	r1, #50
 247:source\bsw\msg/message.c ****         }
 157              		.loc 1 247 0 discriminator 1
 158 0054 6FF01407 		mvn	r7, #20
 159 0058 00E0     		b	.L7
ARM GAS  C:\Users\agraw\AppData\Local\Temp\ccWhtEoP.s 			page 12


 160              	.LVL15:
 161              	.L12:
 162              	.LBE2:
 224:source\bsw\msg/message.c ****     
 163              		.loc 1 224 0
 164 005a 0027     		movs	r7, #0
 165              	.LVL16:
 166              	.L7:
 167              	.LBB5:
 168              	.LBB4:
 251:source\bsw\msg/message.c ****         {
 169              		.loc 1 251 0
 170 005c 0023     		movs	r3, #0
 171 005e 03E0     		b	.L8
 172              	.LVL17:
 173              	.L9:
 253:source\bsw\msg/message.c ****         }
 174              		.loc 1 253 0 discriminator 3
 175 0060 EA5C     		ldrb	r2, [r5, r3]	@ zero_extendqisi2
 176 0062 F254     		strb	r2, [r6, r3]
 251:source\bsw\msg/message.c ****         {
 177              		.loc 1 251 0 discriminator 3
 178 0064 0133     		adds	r3, r3, #1
 179              	.LVL18:
 180 0066 9BB2     		uxth	r3, r3
 181              	.LVL19:
 182              	.L8:
 251:source\bsw\msg/message.c ****         {
 183              		.loc 1 251 0 is_stmt 0 discriminator 1
 184 0068 8AB2     		uxth	r2, r1
 185 006a 9342     		cmp	r3, r2
 186 006c F8D3     		bcc	.L9
 187              	.LBE4:
 257:source\bsw\msg/message.c ****         me->m_content[me->m_writeIdx].m_msgId = id;     
 188              		.loc 1 257 0 is_stmt 1
 189 006e 2368     		ldr	r3, [r4]
 190              	.LVL20:
 191 0070 E188     		ldrh	r1, [r4, #6]
 192              	.LVL21:
 193 0072 03EBC103 		add	r3, r3, r1, lsl #3
 194 0076 9A80     		strh	r2, [r3, #4]	@ movhi
 258:source\bsw\msg/message.c ****         
 195              		.loc 1 258 0
 196 0078 2368     		ldr	r3, [r4]
 197 007a E288     		ldrh	r2, [r4, #6]
 198 007c 03EBC203 		add	r3, r3, r2, lsl #3
 199 0080 BDF80420 		ldrh	r2, [sp, #4]
 200 0084 DA80     		strh	r2, [r3, #6]	@ movhi
 260:source\bsw\msg/message.c ****         me->m_writeIdx %= me->m_size;     
 201              		.loc 1 260 0
 202 0086 E388     		ldrh	r3, [r4, #6]
 203 0088 0133     		adds	r3, r3, #1
 204 008a 9BB2     		uxth	r3, r3
 261:source\bsw\msg/message.c ****         me->m_writeCount++;                
 205              		.loc 1 261 0
 206 008c A188     		ldrh	r1, [r4, #4]
 207 008e B3FBF1F2 		udiv	r2, r3, r1
ARM GAS  C:\Users\agraw\AppData\Local\Temp\ccWhtEoP.s 			page 13


 208 0092 01FB1233 		mls	r3, r1, r2, r3
 209 0096 E380     		strh	r3, [r4, #6]	@ movhi
 262:source\bsw\msg/message.c ****         
 210              		.loc 1 262 0
 211 0098 E368     		ldr	r3, [r4, #12]
 212 009a 0133     		adds	r3, r3, #1
 213 009c E360     		str	r3, [r4, #12]
 266:source\bsw\msg/message.c ****         if (me->m_ressource != 0) ReleaseResource(me->m_ressource);
 214              		.loc 1 266 0
 215              		.syntax unified
 216              	@ 266 "source\bsw\msg\message.c" 1
 217 009e 62B6     		CPSIE   i
 218              	@ 0 "" 2
 267:source\bsw\msg/message.c ****         SetEvent(me->m_task, me->m_ev);    
 219              		.loc 1 267 0
 220              		.thumb
 221              		.syntax unified
 222 00a0 E069     		ldr	r0, [r4, #28]
 223 00a2 08B1     		cbz	r0, .L10
 267:source\bsw\msg/message.c ****         SetEvent(me->m_task, me->m_ev);    
 224              		.loc 1 267 0 is_stmt 0 discriminator 1
 225 00a4 FFF7FEFF 		bl	EE_oo_ReleaseResource
 226              	.LVL22:
 227              	.L10:
 268:source\bsw\msg/message.c **** 
 228              		.loc 1 268 0 is_stmt 1
 229 00a8 6169     		ldr	r1, [r4, #20]
 230 00aa A069     		ldr	r0, [r4, #24]
 231 00ac FFF7FEFF 		bl	EE_oo_SetEvent
 232              	.LVL23:
 233              	.LBE5:
 234 00b0 1DE0     		b	.L11
 235              	.LVL24:
 236              	.L5:
 237              	.LBB6:
 273:source\bsw\msg/message.c ****         res = RC_ERROR_BUFFER_FULL;       
 238              		.loc 1 273 0 discriminator 1
 239 00b2 2CAD     		add	r5, sp, #176
 240              	.LVL25:
 241 00b4 0323     		movs	r3, #3
 242 00b6 05F8A83D 		strb	r3, [r5, #-168]!
 243 00ba 0E4B     		ldr	r3, .L14
 244 00bc 1868     		ldr	r0, [r3]	@ unaligned
 245 00be CDF80900 		str	r0, [sp, #9]	@ unaligned
 246 00c2 0E4C     		ldr	r4, .L14+8
 247              	.LVL26:
 248 00c4 0FCC     		ldmia	r4!, {r0, r1, r2, r3}
 249 00c6 CDF81900 		str	r0, [sp, #25]	@ unaligned
 250 00ca CDF81D10 		str	r1, [sp, #29]	@ unaligned
 251 00ce CDF82120 		str	r2, [sp, #33]	@ unaligned
 252 00d2 CDF82530 		str	r3, [sp, #37]	@ unaligned
 253 00d6 07CC     		ldmia	r4!, {r0, r1, r2}
 254 00d8 CDF82900 		str	r0, [sp, #41]	@ unaligned
 255 00dc CDF82D10 		str	r1, [sp, #45]	@ unaligned
 256 00e0 CDF83120 		str	r2, [sp, #49]	@ unaligned
 257 00e4 2846     		mov	r0, r5
 258 00e6 FFF7FEFF 		bl	LOG_send
ARM GAS  C:\Users\agraw\AppData\Local\Temp\ccWhtEoP.s 			page 14


 259              	.LVL27:
 260              	.LBE6:
 274:source\bsw\msg/message.c ****     }
 261              		.loc 1 274 0 discriminator 1
 262 00ea 6FF00707 		mvn	r7, #7
 263              	.LVL28:
 264              	.L11:
 278:source\bsw\msg/message.c ****  
 265              		.loc 1 278 0
 266 00ee 3846     		mov	r0, r7
 267 00f0 2DB0     		add	sp, sp, #180
 268              		.cfi_def_cfa_offset 20
 269              		@ sp needed
 270 00f2 F0BD     		pop	{r4, r5, r6, r7, pc}
 271              	.LVL29:
 272              	.L15:
 273              		.align	2
 274              	.L14:
 275 00f4 00000000 		.word	.LC0
 276 00f8 04000000 		.word	.LC1
 277 00fc 4C000000 		.word	.LC2
 278              		.cfi_endproc
 279              	.LFE115:
 280              		.size	MSG_sendMessage, .-MSG_sendMessage
 281              		.section	.text.MSG_receiveMessage,"ax",%progbits
 282              		.align	2
 283              		.global	MSG_receiveMessage
 284              		.thumb
 285              		.thumb_func
 286              		.type	MSG_receiveMessage, %function
 287              	MSG_receiveMessage:
 288              	.LFB116:
 293:source\bsw\msg/message.c ****     
 289              		.loc 1 293 0
 290              		.cfi_startproc
 291              		@ args = 0, pretend = 0, frame = 168
 292              		@ frame_needed = 0, uses_anonymous_args = 0
 293              	.LVL30:
 294 0000 2DE9F041 		push	{r4, r5, r6, r7, r8, lr}
 295              		.cfi_def_cfa_offset 24
 296              		.cfi_offset 4, -24
 297              		.cfi_offset 5, -20
 298              		.cfi_offset 6, -16
 299              		.cfi_offset 7, -12
 300              		.cfi_offset 8, -8
 301              		.cfi_offset 14, -4
 302 0004 AAB0     		sub	sp, sp, #168
 303              		.cfi_def_cfa_offset 192
 304 0006 0746     		mov	r7, r0
 305 0008 0D46     		mov	r5, r1
 306 000a 1446     		mov	r4, r2
 307 000c 9846     		mov	r8, r3
 299:source\bsw\msg/message.c ****     {
 308              		.loc 1 299 0
 309 000e FFF7FEFF 		bl	MSG_getFillLevel
 310              	.LVL31:
 311 0012 0028     		cmp	r0, #0
ARM GAS  C:\Users\agraw\AppData\Local\Temp\ccWhtEoP.s 			page 15


 312 0014 4AD0     		beq	.L17
 313              	.LBB7:
 302:source\bsw\msg/message.c ****         uint8_t* pBuffer = me->m_content[me->m_readIdx].mp_memory;
 314              		.loc 1 302 0
 315 0016 3A68     		ldr	r2, [r7]
 316 0018 3989     		ldrh	r1, [r7, #8]
 317 001a 02EBC103 		add	r3, r2, r1, lsl #3
 318 001e 9888     		ldrh	r0, [r3, #4]
 319              	.LVL32:
 303:source\bsw\msg/message.c ****         *id = me->m_content[me->m_readIdx].m_msgId;
 320              		.loc 1 303 0
 321 0020 52F83160 		ldr	r6, [r2, r1, lsl #3]
 322              	.LVL33:
 304:source\bsw\msg/message.c ****         //LOG_D("MB_recMessage","size tmd = %d, size stored = %d, buffer = %x", size, mSize, pBuffe
 323              		.loc 1 304 0
 324 0024 DB88     		ldrh	r3, [r3, #6]	@ unaligned
 325 0026 A8F80030 		strh	r3, [r8]	@ unaligned
 307:source\bsw\msg/message.c ****         {
 326              		.loc 1 307 0
 327 002a A042     		cmp	r0, r4
 328 002c 1ED0     		beq	.L18
 329              	.LBB8:
 309:source\bsw\msg/message.c ****             return RC_ERROR_BAD_PARAM;
 330              		.loc 1 309 0 discriminator 1
 331 002e 2AAD     		add	r5, sp, #168
 332              	.LVL34:
 333 0030 0323     		movs	r3, #3
 334 0032 05F8A83D 		strb	r3, [r5, #-168]!
 335 0036 304B     		ldr	r3, .L25
 336 0038 1868     		ldr	r0, [r3]	@ unaligned
 337              	.LVL35:
 338 003a CDF80100 		str	r0, [sp, #1]	@ unaligned
 339 003e 2F4C     		ldr	r4, .L25+4
 340 0040 0FCC     		ldmia	r4!, {r0, r1, r2, r3}
 341 0042 CDF81100 		str	r0, [sp, #17]	@ unaligned
 342 0046 CDF81510 		str	r1, [sp, #21]	@ unaligned
 343 004a CDF81920 		str	r2, [sp, #25]	@ unaligned
 344 004e CDF81D30 		str	r3, [sp, #29]	@ unaligned
 345 0052 07CC     		ldmia	r4!, {r0, r1, r2}
 346 0054 CDF82100 		str	r0, [sp, #33]	@ unaligned
 347 0058 CDF82510 		str	r1, [sp, #37]	@ unaligned
 348 005c CDF82920 		str	r2, [sp, #41]	@ unaligned
 349 0060 2846     		mov	r0, r5
 350 0062 FFF7FEFF 		bl	LOG_send
 351              	.LVL36:
 352              	.LBE8:
 310:source\bsw\msg/message.c ****         }
 353              		.loc 1 310 0 discriminator 1
 354 0066 6FF01300 		mvn	r0, #19
 355 006a 41E0     		b	.L19
 356              	.LVL37:
 357              	.L18:
 313:source\bsw\msg/message.c ****         MSG_DI;
 358              		.loc 1 313 0
 359 006c F869     		ldr	r0, [r7, #28]
 360              	.LVL38:
 361 006e 08B1     		cbz	r0, .L20
ARM GAS  C:\Users\agraw\AppData\Local\Temp\ccWhtEoP.s 			page 16


 313:source\bsw\msg/message.c ****         MSG_DI;
 362              		.loc 1 313 0 is_stmt 0 discriminator 1
 363 0070 FFF7FEFF 		bl	EE_oo_GetResource
 364              	.LVL39:
 365              	.L20:
 314:source\bsw\msg/message.c ****         
 366              		.loc 1 314 0 is_stmt 1
 367              		.syntax unified
 368              	@ 314 "source\bsw\msg\message.c" 1
 369 0074 72B6     		CPSID   i
 370              	@ 0 "" 2
 371              	.LVL40:
 372              		.thumb
 373              		.syntax unified
 374              	.LBB9:
 317:source\bsw\msg/message.c ****         {
 375              		.loc 1 317 0
 376 0076 0023     		movs	r3, #0
 377 0078 03E0     		b	.L21
 378              	.LVL41:
 379              	.L22:
 319:source\bsw\msg/message.c ****         }
 380              		.loc 1 319 0 discriminator 3
 381 007a F25C     		ldrb	r2, [r6, r3]	@ zero_extendqisi2
 382 007c EA54     		strb	r2, [r5, r3]
 317:source\bsw\msg/message.c ****         {
 383              		.loc 1 317 0 discriminator 3
 384 007e 0133     		adds	r3, r3, #1
 385              	.LVL42:
 386 0080 9BB2     		uxth	r3, r3
 387              	.LVL43:
 388              	.L21:
 317:source\bsw\msg/message.c ****         {
 389              		.loc 1 317 0 is_stmt 0 discriminator 1
 390 0082 A342     		cmp	r3, r4
 391 0084 F9D3     		bcc	.L22
 392              	.LBE9:
 328:source\bsw\msg/message.c ****         me->m_readIdx %= me->m_size;
 393              		.loc 1 328 0 is_stmt 1
 394 0086 3B89     		ldrh	r3, [r7, #8]
 395              	.LVL44:
 396 0088 0133     		adds	r3, r3, #1
 397 008a 9BB2     		uxth	r3, r3
 329:source\bsw\msg/message.c ****         me->m_readCount++;
 398              		.loc 1 329 0
 399 008c B988     		ldrh	r1, [r7, #4]
 400 008e B3FBF1F2 		udiv	r2, r3, r1
 401 0092 01FB1233 		mls	r3, r1, r2, r3
 402 0096 3B81     		strh	r3, [r7, #8]	@ movhi
 330:source\bsw\msg/message.c ****         
 403              		.loc 1 330 0
 404 0098 3B69     		ldr	r3, [r7, #16]
 405 009a 0133     		adds	r3, r3, #1
 406 009c 3B61     		str	r3, [r7, #16]
 332:source\bsw\msg/message.c ****         if (me->m_ressource != 0) ReleaseResource(me->m_ressource);
 407              		.loc 1 332 0
 408              		.syntax unified
ARM GAS  C:\Users\agraw\AppData\Local\Temp\ccWhtEoP.s 			page 17


 409              	@ 332 "source\bsw\msg\message.c" 1
 410 009e 62B6     		CPSIE   i
 411              	@ 0 "" 2
 333:source\bsw\msg/message.c **** 
 412              		.loc 1 333 0
 413              		.thumb
 414              		.syntax unified
 415 00a0 F869     		ldr	r0, [r7, #28]
 416 00a2 20B3     		cbz	r0, .L23
 333:source\bsw\msg/message.c **** 
 417              		.loc 1 333 0 is_stmt 0 discriminator 1
 418 00a4 FFF7FEFF 		bl	EE_oo_ReleaseResource
 419              	.LVL45:
 335:source\bsw\msg/message.c ****     }
 420              		.loc 1 335 0 is_stmt 1 discriminator 1
 421 00a8 0020     		movs	r0, #0
 422 00aa 21E0     		b	.L19
 423              	.LVL46:
 424              	.L17:
 425              	.LBE7:
 426              	.LBB10:
 339:source\bsw\msg/message.c ****         return RC_ERROR_BUFFER_EMTPY;
 427              		.loc 1 339 0 discriminator 1
 428 00ac 2AAD     		add	r5, sp, #168
 429              	.LVL47:
 430 00ae 0123     		movs	r3, #1
 431 00b0 05F8A83D 		strb	r3, [r5, #-168]!
 432 00b4 104B     		ldr	r3, .L25
 433 00b6 1868     		ldr	r0, [r3]	@ unaligned
 434 00b8 CDF80100 		str	r0, [sp, #1]	@ unaligned
 435 00bc 104C     		ldr	r4, .L25+8
 436 00be 0FCC     		ldmia	r4!, {r0, r1, r2, r3}
 437 00c0 CDF81100 		str	r0, [sp, #17]	@ unaligned
 438 00c4 CDF81510 		str	r1, [sp, #21]	@ unaligned
 439 00c8 CDF81920 		str	r2, [sp, #25]	@ unaligned
 440 00cc CDF81D30 		str	r3, [sp, #29]	@ unaligned
 441 00d0 0FCC     		ldmia	r4!, {r0, r1, r2, r3}
 442 00d2 CDF82100 		str	r0, [sp, #33]	@ unaligned
 443 00d6 CDF82510 		str	r1, [sp, #37]	@ unaligned
 444 00da CDF82920 		str	r2, [sp, #41]	@ unaligned
 445 00de CDF82D30 		str	r3, [sp, #45]	@ unaligned
 446 00e2 2846     		mov	r0, r5
 447 00e4 FFF7FEFF 		bl	LOG_send
 448              	.LVL48:
 449              	.LBE10:
 340:source\bsw\msg/message.c ****     }
 450              		.loc 1 340 0 discriminator 1
 451 00e8 6FF00800 		mvn	r0, #8
 452 00ec 00E0     		b	.L19
 453              	.LVL49:
 454              	.L23:
 455              	.LBB11:
 335:source\bsw\msg/message.c ****     }
 456              		.loc 1 335 0
 457 00ee 0020     		movs	r0, #0
 458              	.LVL50:
 459              	.L19:
ARM GAS  C:\Users\agraw\AppData\Local\Temp\ccWhtEoP.s 			page 18


 460              	.LBE11:
 342:source\bsw\msg/message.c **** /**
 461              		.loc 1 342 0
 462 00f0 2AB0     		add	sp, sp, #168
 463              		.cfi_def_cfa_offset 24
 464              		@ sp needed
 465 00f2 BDE8F081 		pop	{r4, r5, r6, r7, r8, pc}
 466              	.LVL51:
 467              	.L26:
 468 00f6 00BF     		.align	2
 469              	.L25:
 470 00f8 00000000 		.word	.LC0
 471 00fc 68000000 		.word	.LC3
 472 0100 84000000 		.word	.LC4
 473              		.cfi_endproc
 474              	.LFE116:
 475              		.size	MSG_receiveMessage, .-MSG_receiveMessage
 476              		.section	.text.MSG_getSizeAndIdOfNextMessage,"ax",%progbits
 477              		.align	2
 478              		.global	MSG_getSizeAndIdOfNextMessage
 479              		.thumb
 480              		.thumb_func
 481              		.type	MSG_getSizeAndIdOfNextMessage, %function
 482              	MSG_getSizeAndIdOfNextMessage:
 483              	.LFB117:
 351:source\bsw\msg/message.c ****     if (MSG_getFillLevel(me) > 0)
 484              		.loc 1 351 0
 485              		.cfi_startproc
 486              		@ args = 0, pretend = 0, frame = 168
 487              		@ frame_needed = 0, uses_anonymous_args = 0
 488              	.LVL52:
 489 0000 F0B5     		push	{r4, r5, r6, r7, lr}
 490              		.cfi_def_cfa_offset 20
 491              		.cfi_offset 4, -20
 492              		.cfi_offset 5, -16
 493              		.cfi_offset 6, -12
 494              		.cfi_offset 7, -8
 495              		.cfi_offset 14, -4
 496 0002 ABB0     		sub	sp, sp, #172
 497              		.cfi_def_cfa_offset 192
 498 0004 0446     		mov	r4, r0
 499 0006 0D46     		mov	r5, r1
 500 0008 1646     		mov	r6, r2
 352:source\bsw\msg/message.c ****     {
 501              		.loc 1 352 0
 502 000a FFF7FEFF 		bl	MSG_getFillLevel
 503              	.LVL53:
 504 000e 68B1     		cbz	r0, .L28
 355:source\bsw\msg/message.c ****         *id = me->m_content[me->m_readIdx].m_msgId;
 505              		.loc 1 355 0
 506 0010 2368     		ldr	r3, [r4]
 507 0012 2289     		ldrh	r2, [r4, #8]
 508 0014 03EBC203 		add	r3, r3, r2, lsl #3
 509 0018 9B88     		ldrh	r3, [r3, #4]
 510 001a 2B80     		strh	r3, [r5]	@ movhi
 356:source\bsw\msg/message.c ****         //LOG_D("MB_getSize","readIdx = %d, size = %d", me->m_readIdx, *size);
 511              		.loc 1 356 0
ARM GAS  C:\Users\agraw\AppData\Local\Temp\ccWhtEoP.s 			page 19


 512 001c 2368     		ldr	r3, [r4]
 513 001e 2289     		ldrh	r2, [r4, #8]
 514 0020 03EBC203 		add	r3, r3, r2, lsl #3
 515 0024 DB88     		ldrh	r3, [r3, #6]	@ unaligned
 516 0026 3380     		strh	r3, [r6]	@ unaligned
 359:source\bsw\msg/message.c ****     }
 517              		.loc 1 359 0
 518 0028 0020     		movs	r0, #0
 519 002a 23E0     		b	.L29
 520              	.L28:
 521              	.LBB12:
 363:source\bsw\msg/message.c ****         *size = 0;
 522              		.loc 1 363 0 discriminator 1
 523 002c 0123     		movs	r3, #1
 524 002e 8DF80030 		strb	r3, [sp]
 525 0032 114B     		ldr	r3, .L32
 526 0034 1868     		ldr	r0, [r3]	@ unaligned
 527 0036 CDF80100 		str	r0, [sp, #1]	@ unaligned
 528 003a 104E     		ldr	r6, .L32+4
 529              	.LVL54:
 530 003c 0DF11104 		add	r4, sp, #17
 531              	.LVL55:
 532 0040 06F1200E 		add	lr, r6, #32
 533              	.L30:
 534 0044 3746     		mov	r7, r6
 535 0046 0FCF     		ldmia	r7!, {r0, r1, r2, r3}
 536 0048 2060     		str	r0, [r4]	@ unaligned
 537 004a 6160     		str	r1, [r4, #4]	@ unaligned
 538 004c A260     		str	r2, [r4, #8]	@ unaligned
 539 004e E360     		str	r3, [r4, #12]	@ unaligned
 540 0050 3E46     		mov	r6, r7
 541 0052 1034     		adds	r4, r4, #16
 542 0054 7745     		cmp	r7, lr
 543 0056 F5D1     		bne	.L30
 544 0058 03CE     		ldmia	r6!, {r0, r1}
 545 005a 2060     		str	r0, [r4]	@ unaligned
 546 005c 6160     		str	r1, [r4, #4]	@ unaligned
 547 005e 3288     		ldrh	r2, [r6]	@ unaligned
 548 0060 B378     		ldrb	r3, [r6, #2]	@ zero_extendqisi2
 549 0062 2281     		strh	r2, [r4, #8]	@ unaligned
 550 0064 A372     		strb	r3, [r4, #10]
 551 0066 6846     		mov	r0, sp
 552 0068 FFF7FEFF 		bl	LOG_send
 553              	.LVL56:
 554              	.LBE12:
 364:source\bsw\msg/message.c ****         return RC_ERROR_BUFFER_EMTPY;
 555              		.loc 1 364 0 discriminator 1
 556 006c 0023     		movs	r3, #0
 557 006e 2B80     		strh	r3, [r5]	@ movhi
 365:source\bsw\msg/message.c ****     }
 558              		.loc 1 365 0 discriminator 1
 559 0070 6FF00800 		mvn	r0, #8
 560              	.L29:
 367:source\bsw\msg/message.c **** 
 561              		.loc 1 367 0
 562 0074 2BB0     		add	sp, sp, #172
 563              		.cfi_def_cfa_offset 20
ARM GAS  C:\Users\agraw\AppData\Local\Temp\ccWhtEoP.s 			page 20


 564              		@ sp needed
 565 0076 F0BD     		pop	{r4, r5, r6, r7, pc}
 566              	.LVL57:
 567              	.L33:
 568              		.align	2
 569              	.L32:
 570 0078 00000000 		.word	.LC0
 571 007c A4000000 		.word	.LC5
 572              		.cfi_endproc
 573              	.LFE117:
 574              		.size	MSG_getSizeAndIdOfNextMessage, .-MSG_getSizeAndIdOfNextMessage
 575              		.section	.text.MSG_dbgPrint,"ax",%progbits
 576              		.align	2
 577              		.global	MSG_dbgPrint
 578              		.thumb
 579              		.thumb_func
 580              		.type	MSG_dbgPrint, %function
 581              	MSG_dbgPrint:
 582              	.LFB119:
 389:source\bsw\msg/message.c ****     LOG_D("MSG","Size = %d, Filllevel = %d, ReadIndex = %d, WriteIndex = %d", me->m_size, MSG_getFi
 583              		.loc 1 389 0
 584              		.cfi_startproc
 585              		@ args = 0, pretend = 0, frame = 168
 586              		@ frame_needed = 0, uses_anonymous_args = 0
 587              	.LVL58:
 588 0000 70B5     		push	{r4, r5, r6, lr}
 589              		.cfi_def_cfa_offset 16
 590              		.cfi_offset 4, -16
 591              		.cfi_offset 5, -12
 592              		.cfi_offset 6, -8
 593              		.cfi_offset 14, -4
 594 0002 ACB0     		sub	sp, sp, #176
 595              		.cfi_def_cfa_offset 192
 596 0004 0646     		mov	r6, r0
 597              	.LBB13:
 390:source\bsw\msg/message.c ****     
 598              		.loc 1 390 0
 599 0006 2CAC     		add	r4, sp, #176
 600 0008 0423     		movs	r3, #4
 601 000a 04F8A83D 		strb	r3, [r4, #-168]!
 602 000e 1D4B     		ldr	r3, .L38
 603 0010 1868     		ldr	r0, [r3]	@ unaligned
 604              	.LVL59:
 605 0012 CDF80900 		str	r0, [sp, #9]	@ unaligned
 606 0016 B588     		ldrh	r5, [r6, #4]
 607 0018 3046     		mov	r0, r6
 608 001a FFF7FEFF 		bl	MSG_getFillLevel
 609              	.LVL60:
 610 001e 3389     		ldrh	r3, [r6, #8]
 611 0020 F288     		ldrh	r2, [r6, #6]
 612 0022 0192     		str	r2, [sp, #4]
 613 0024 0093     		str	r3, [sp]
 614 0026 0346     		mov	r3, r0
 615 0028 2A46     		mov	r2, r5
 616 002a 1749     		ldr	r1, .L38+4
 617 002c 0DF11900 		add	r0, sp, #25
 618 0030 FFF7FEFF 		bl	sprintf
ARM GAS  C:\Users\agraw\AppData\Local\Temp\ccWhtEoP.s 			page 21


 619              	.LVL61:
 620 0034 2046     		mov	r0, r4
 621 0036 FFF7FEFF 		bl	LOG_send
 622              	.LVL62:
 623              	.LBE13:
 624              	.LBB14:
 392:source\bsw\msg/message.c ****     {
 625              		.loc 1 392 0
 626 003a 0024     		movs	r4, #0
 627 003c 1BE0     		b	.L35
 628              	.LVL63:
 629              	.L36:
 630              	.LBB15:
 394:source\bsw\msg/message.c ****     }
 631              		.loc 1 394 0 discriminator 1
 632 003e 2CAD     		add	r5, sp, #176
 633 0040 0423     		movs	r3, #4
 634 0042 05F8A83D 		strb	r3, [r5, #-168]!
 635 0046 114B     		ldr	r3, .L38+8
 636 0048 03CB     		ldmia	r3!, {r0, r1}
 637 004a CDF80900 		str	r0, [sp, #9]	@ unaligned
 638 004e CDF80D10 		str	r1, [sp, #13]	@ unaligned
 639 0052 3368     		ldr	r3, [r6]
 640 0054 03EBC402 		add	r2, r3, r4, lsl #3
 641 0058 9288     		ldrh	r2, [r2, #4]
 642 005a 53F83430 		ldr	r3, [r3, r4, lsl #3]
 643 005e 0092     		str	r2, [sp]
 644 0060 2246     		mov	r2, r4
 645 0062 0B49     		ldr	r1, .L38+12
 646 0064 0DF11900 		add	r0, sp, #25
 647 0068 FFF7FEFF 		bl	sprintf
 648              	.LVL64:
 649 006c 2846     		mov	r0, r5
 650 006e FFF7FEFF 		bl	LOG_send
 651              	.LVL65:
 652              	.LBE15:
 392:source\bsw\msg/message.c ****     {
 653              		.loc 1 392 0 discriminator 1
 654 0072 0134     		adds	r4, r4, #1
 655              	.LVL66:
 656 0074 A4B2     		uxth	r4, r4
 657              	.LVL67:
 658              	.L35:
 659 0076 B388     		ldrh	r3, [r6, #4]
 660 0078 9C42     		cmp	r4, r3
 661 007a E0D3     		bcc	.L36
 662              	.LBE14:
 398:source\bsw\msg/message.c **** 
 663              		.loc 1 398 0
 664 007c 0020     		movs	r0, #0
 665 007e 2CB0     		add	sp, sp, #176
 666              		.cfi_def_cfa_offset 16
 667              		@ sp needed
 668 0080 70BD     		pop	{r4, r5, r6, pc}
 669              	.LVL68:
 670              	.L39:
 671 0082 00BF     		.align	2
ARM GAS  C:\Users\agraw\AppData\Local\Temp\ccWhtEoP.s 			page 22


 672              	.L38:
 673 0084 00000000 		.word	.LC0
 674 0088 D0000000 		.word	.LC6
 675 008c 0C010000 		.word	.LC7
 676 0090 14010000 		.word	.LC8
 677              		.cfi_endproc
 678              	.LFE119:
 679              		.size	MSG_dbgPrint, .-MSG_dbgPrint
 680              		.section	.text.MSG_checkAllocation,"ax",%progbits
 681              		.align	2
 682              		.global	MSG_checkAllocation
 683              		.thumb
 684              		.thumb_func
 685              		.type	MSG_checkAllocation, %function
 686              	MSG_checkAllocation:
 687              	.LFB122:
 458:source\bsw\msg/message.c **** 
 459:source\bsw\msg/message.c **** 
 460:source\bsw\msg/message.c **** /**
 461:source\bsw\msg/message.c ****  * Will check if the allocated adress is in the heap area
 462:source\bsw\msg/message.c ****  * Limitation: Size of the allocated memory is not checked
 463:source\bsw\msg/message.c ****  */
 464:source\bsw\msg/message.c **** RC_t MSG_checkAllocation(void* adr)
 465:source\bsw\msg/message.c **** {
 688              		.loc 1 465 0
 689              		.cfi_startproc
 690              		@ args = 0, pretend = 0, frame = 168
 691              		@ frame_needed = 0, uses_anonymous_args = 0
 692              	.LVL69:
 693 0000 10B5     		push	{r4, lr}
 694              		.cfi_def_cfa_offset 8
 695              		.cfi_offset 4, -8
 696              		.cfi_offset 14, -4
 697 0002 ACB0     		sub	sp, sp, #176
 698              		.cfi_def_cfa_offset 184
 466:source\bsw\msg/message.c ****     if (adr < (void*)(&__cy_heap_start) || adr > (void*)(&__cy_heap_end))
 699              		.loc 1 466 0
 700 0004 0F4B     		ldr	r3, .L45
 701 0006 9842     		cmp	r0, r3
 702 0008 02D3     		bcc	.L41
 703              		.loc 1 466 0 is_stmt 0 discriminator 1
 704 000a 0F4B     		ldr	r3, .L45+4
 705 000c 9842     		cmp	r0, r3
 706 000e 16D9     		bls	.L43
 707              	.L41:
 708 0010 0246     		mov	r2, r0
 709              	.LBB16:
 467:source\bsw\msg/message.c ****     {
 468:source\bsw\msg/message.c ****         LOG_E("MSG","Memory allocation/adress out of of heap area: %x (%x - %x)", (unsigned int)adr
 710              		.loc 1 468 0 is_stmt 1 discriminator 1
 711 0012 2CAC     		add	r4, sp, #176
 712 0014 0323     		movs	r3, #3
 713 0016 04F8A83D 		strb	r3, [r4, #-168]!
 714 001a 0C4B     		ldr	r3, .L45+8
 715 001c 1868     		ldr	r0, [r3]	@ unaligned
 716              	.LVL70:
 717 001e CDF80900 		str	r0, [sp, #9]	@ unaligned
ARM GAS  C:\Users\agraw\AppData\Local\Temp\ccWhtEoP.s 			page 23


 718 0022 094B     		ldr	r3, .L45+4
 719 0024 0093     		str	r3, [sp]
 720 0026 074B     		ldr	r3, .L45
 721 0028 0949     		ldr	r1, .L45+12
 722 002a 0DF11900 		add	r0, sp, #25
 723 002e FFF7FEFF 		bl	sprintf
 724              	.LVL71:
 725 0032 2046     		mov	r0, r4
 726 0034 FFF7FEFF 		bl	LOG_send
 727              	.LVL72:
 728              	.LBE16:
 469:source\bsw\msg/message.c ****         return RC_ERROR_MEMORY;
 729              		.loc 1 469 0 discriminator 1
 730 0038 6FF00300 		mvn	r0, #3
 731 003c 00E0     		b	.L42
 732              	.LVL73:
 733              	.L43:
 470:source\bsw\msg/message.c ****     }
 471:source\bsw\msg/message.c ****     
 472:source\bsw\msg/message.c ****     return RC_SUCCESS;
 734              		.loc 1 472 0
 735 003e 0020     		movs	r0, #0
 736              	.LVL74:
 737              	.L42:
 473:source\bsw\msg/message.c **** }...
 738              		.loc 1 473 0
 739 0040 2CB0     		add	sp, sp, #176
 740              		.cfi_def_cfa_offset 8
 741              		@ sp needed
 742 0042 10BD     		pop	{r4, pc}
 743              	.L46:
 744              		.align	2
 745              	.L45:
 746 0044 00000000 		.word	__cy_heap_start
 747 0048 00000000 		.word	__cy_heap_end
 748 004c 00000000 		.word	.LC0
 749 0050 30010000 		.word	.LC9
 750              		.cfi_endproc
 751              	.LFE122:
 752              		.size	MSG_checkAllocation, .-MSG_checkAllocation
 753              		.section	.text.MSG_init,"ax",%progbits
 754              		.align	2
 755              		.global	MSG_init
 756              		.thumb
 757              		.thumb_func
 758              		.type	MSG_init, %function
 759              	MSG_init:
 760              	.LFB114:
  74:source\bsw\msg/message.c **** {
 761              		.loc 1 74 0
 762              		.cfi_startproc
 763              		@ args = 4, pretend = 0, frame = 168
 764              		@ frame_needed = 0, uses_anonymous_args = 0
 765              	.LVL75:
 766 0000 F0B5     		push	{r4, r5, r6, r7, lr}
 767              		.cfi_def_cfa_offset 20
 768              		.cfi_offset 4, -20
ARM GAS  C:\Users\agraw\AppData\Local\Temp\ccWhtEoP.s 			page 24


 769              		.cfi_offset 5, -16
 770              		.cfi_offset 6, -12
 771              		.cfi_offset 7, -8
 772              		.cfi_offset 14, -4
 773 0002 ABB0     		sub	sp, sp, #172
 774              		.cfi_def_cfa_offset 192
 775 0004 0646     		mov	r6, r0
  75:source\bsw\msg/message.c ****     me->m_ev = ev;
 776              		.loc 1 75 0
 777 0006 4261     		str	r2, [r0, #20]
  76:source\bsw\msg/message.c ****     me->m_task = task;
 778              		.loc 1 76 0
 779 0008 8361     		str	r3, [r0, #24]
  77:source\bsw\msg/message.c ****     me->m_ressource = res;
 780              		.loc 1 77 0
 781 000a 309B     		ldr	r3, [sp, #192]
 782              	.LVL76:
 783 000c C361     		str	r3, [r0, #28]
  78:source\bsw\msg/message.c ****     me->m_readCount = 0;
 784              		.loc 1 78 0
 785 000e 0023     		movs	r3, #0
 786 0010 0361     		str	r3, [r0, #16]
  79:source\bsw\msg/message.c ****     me->m_writeCount = 0;
 787              		.loc 1 79 0
 788 0012 C360     		str	r3, [r0, #12]
  80:source\bsw\msg/message.c ****     me->m_readIdx = 0;
 789              		.loc 1 80 0
 790 0014 0381     		strh	r3, [r0, #8]	@ movhi
  81:source\bsw\msg/message.c ****     me->m_writeIdx = 0;
 791              		.loc 1 81 0
 792 0016 C380     		strh	r3, [r0, #6]	@ movhi
  83:source\bsw\msg/message.c ****     if (size > 1)
 793              		.loc 1 83 0
 794 0018 0129     		cmp	r1, #1
 795 001a 01D9     		bls	.L48
  85:source\bsw\msg/message.c ****         me->m_size = size;
 796              		.loc 1 85 0
 797 001c 8180     		strh	r1, [r0, #4]	@ movhi
 798 001e 01E0     		b	.L49
 799              	.L48:
  89:source\bsw\msg/message.c ****         me->m_size = 10;
 800              		.loc 1 89 0
 801 0020 0A23     		movs	r3, #10
 802 0022 8380     		strh	r3, [r0, #4]	@ movhi
 803              	.L49:
  92:source\bsw\msg/message.c ****     me->m_content = (MSG_message_t*)malloc(me->m_size * sizeof(MSG_message_t));
 804              		.loc 1 92 0
 805 0024 B088     		ldrh	r0, [r6, #4]
 806              	.LVL77:
 807 0026 C000     		lsls	r0, r0, #3
 808 0028 FFF7FEFF 		bl	malloc
 809              	.LVL78:
 810 002c 3060     		str	r0, [r6]
  93:source\bsw\msg/message.c ****     if (0 == me->m_content) return RC_ERROR_MEMORY;
 811              		.loc 1 93 0
 812 002e 0028     		cmp	r0, #0
 813 0030 3BD0     		beq	.L54
ARM GAS  C:\Users\agraw\AppData\Local\Temp\ccWhtEoP.s 			page 25


 814 0032 0024     		movs	r4, #0
 815 0034 34E0     		b	.L51
 816              	.LVL79:
 817              	.L53:
 818              	.LBB17:
  97:source\bsw\msg/message.c ****         me->m_content[i].m_size = 0;
 819              		.loc 1 97 0
 820 0036 3368     		ldr	r3, [r6]
 821 0038 03EBC403 		add	r3, r3, r4, lsl #3
 822 003c 0022     		movs	r2, #0
 823 003e 9A80     		strh	r2, [r3, #4]	@ movhi
  99:source\bsw\msg/message.c ****         me->m_content[i].mp_memory = malloc(MSG_STATIC_ALLOCATION_SIZE);
 824              		.loc 1 99 0
 825 0040 3568     		ldr	r5, [r6]
 826 0042 3220     		movs	r0, #50
 827 0044 FFF7FEFF 		bl	malloc
 828              	.LVL80:
 829 0048 45F83400 		str	r0, [r5, r4, lsl #3]
 100:source\bsw\msg/message.c ****         if (RC_SUCCESS != MSG_checkAllocation(me->m_content[i].mp_memory))
 830              		.loc 1 100 0
 831 004c 3368     		ldr	r3, [r6]
 832 004e 53F83400 		ldr	r0, [r3, r4, lsl #3]
 833 0052 FFF7FEFF 		bl	MSG_checkAllocation
 834              	.LVL81:
 835 0056 08B3     		cbz	r0, .L52
 836              	.LBB18:
 102:source\bsw\msg/message.c ****             LOG_E("MSG","Error allocating static memory");
 837              		.loc 1 102 0 discriminator 1
 838 0058 2AAF     		add	r7, sp, #168
 839 005a 0323     		movs	r3, #3
 840 005c 07F8A83D 		strb	r3, [r7, #-168]!
 841 0060 144B     		ldr	r3, .L56
 842 0062 1868     		ldr	r0, [r3]	@ unaligned
 843 0064 CDF80100 		str	r0, [sp, #1]	@ unaligned
 844 0068 134D     		ldr	r5, .L56+4
 845 006a 0FCD     		ldmia	r5!, {r0, r1, r2, r3}
 846 006c CDF81100 		str	r0, [sp, #17]	@ unaligned
 847 0070 CDF81510 		str	r1, [sp, #21]	@ unaligned
 848 0074 CDF81920 		str	r2, [sp, #25]	@ unaligned
 849 0078 CDF81D30 		str	r3, [sp, #29]	@ unaligned
 850 007c 07CD     		ldmia	r5!, {r0, r1, r2}
 851 007e CDF82100 		str	r0, [sp, #33]	@ unaligned
 852 0082 CDF82510 		str	r1, [sp, #37]	@ unaligned
 853 0086 CDF82920 		str	r2, [sp, #41]	@ unaligned
 854 008a 2A88     		ldrh	r2, [r5]	@ unaligned
 855 008c AB78     		ldrb	r3, [r5, #2]	@ zero_extendqisi2
 856 008e ADF82D20 		strh	r2, [sp, #45]	@ unaligned
 857 0092 8DF82F30 		strb	r3, [sp, #47]
 858 0096 3846     		mov	r0, r7
 859 0098 FFF7FEFF 		bl	LOG_send
 860              	.LVL82:
 861              	.L52:
 862              	.LBE18:
  95:source\bsw\msg/message.c ****     for (uint16 i = 0; i < me->m_size; i++) 
 863              		.loc 1 95 0 discriminator 2
 864 009c 0134     		adds	r4, r4, #1
 865              	.LVL83:
ARM GAS  C:\Users\agraw\AppData\Local\Temp\ccWhtEoP.s 			page 26


 866 009e A4B2     		uxth	r4, r4
 867              	.LVL84:
 868              	.L51:
  95:source\bsw\msg/message.c ****     for (uint16 i = 0; i < me->m_size; i++) 
 869              		.loc 1 95 0 is_stmt 0 discriminator 1
 870 00a0 B388     		ldrh	r3, [r6, #4]
 871 00a2 9C42     		cmp	r4, r3
 872 00a4 C7D3     		bcc	.L53
 873              	.LBE17:
 110:source\bsw\msg/message.c ****     return RC_SUCCESS;
 874              		.loc 1 110 0 is_stmt 1
 875 00a6 0020     		movs	r0, #0
 876              	.LBB19:
 877 00a8 01E0     		b	.L50
 878              	.LVL85:
 879              	.L54:
 880              	.LBE19:
  93:source\bsw\msg/message.c ****     if (0 == me->m_content) return RC_ERROR_MEMORY;
 881              		.loc 1 93 0
 882 00aa 6FF00300 		mvn	r0, #3
 883              	.L50:
 111:source\bsw\msg/message.c **** }
 884              		.loc 1 111 0
 885 00ae 2BB0     		add	sp, sp, #172
 886              		.cfi_def_cfa_offset 20
 887              		@ sp needed
 888 00b0 F0BD     		pop	{r4, r5, r6, r7, pc}
 889              	.LVL86:
 890              	.L57:
 891 00b2 00BF     		.align	2
 892              	.L56:
 893 00b4 00000000 		.word	.LC0
 894 00b8 6C010000 		.word	.LC10
 895              		.cfi_endproc
 896              	.LFE114:
 897              		.size	MSG_init, .-MSG_init
 898              		.section	.text.MSG_receiveMessageRef,"ax",%progbits
 899              		.align	2
 900              		.global	MSG_receiveMessageRef
 901              		.thumb
 902              		.thumb_func
 903              		.type	MSG_receiveMessageRef, %function
 904              	MSG_receiveMessageRef:
 905              	.LFB120:
 409:source\bsw\msg/message.c **** {
 906              		.loc 1 409 0
 907              		.cfi_startproc
 908              		@ args = 0, pretend = 0, frame = 168
 909              		@ frame_needed = 0, uses_anonymous_args = 0
 910              	.LVL87:
 911 0000 F0B5     		push	{r4, r5, r6, r7, lr}
 912              		.cfi_def_cfa_offset 20
 913              		.cfi_offset 4, -20
 914              		.cfi_offset 5, -16
 915              		.cfi_offset 6, -12
 916              		.cfi_offset 7, -8
 917              		.cfi_offset 14, -4
ARM GAS  C:\Users\agraw\AppData\Local\Temp\ccWhtEoP.s 			page 27


 918 0002 ABB0     		sub	sp, sp, #172
 919              		.cfi_def_cfa_offset 192
 920 0004 0446     		mov	r4, r0
 921 0006 0D46     		mov	r5, r1
 922 0008 1746     		mov	r7, r2
 923 000a 1E46     		mov	r6, r3
 415:source\bsw\msg/message.c ****     if (MSG_getFillLevel(me) > 0)
 924              		.loc 1 415 0
 925 000c FFF7FEFF 		bl	MSG_getFillLevel
 926              	.LVL88:
 927 0010 0028     		cmp	r0, #0
 928 0012 3ED0     		beq	.L59
 417:source\bsw\msg/message.c ****         if (me->m_ressource != 0) GetResource(me->m_ressource);
 929              		.loc 1 417 0
 930 0014 E069     		ldr	r0, [r4, #28]
 931 0016 08B1     		cbz	r0, .L60
 417:source\bsw\msg/message.c ****         if (me->m_ressource != 0) GetResource(me->m_ressource);
 932              		.loc 1 417 0 is_stmt 0 discriminator 1
 933 0018 FFF7FEFF 		bl	EE_oo_GetResource
 934              	.LVL89:
 935              	.L60:
 418:source\bsw\msg/message.c ****         MSG_DI;
 936              		.loc 1 418 0 is_stmt 1
 937              		.syntax unified
 938              	@ 418 "source\bsw\msg\message.c" 1
 939 001c 72B6     		CPSID   i
 940              	@ 0 "" 2
 421:source\bsw\msg/message.c ****         *psize = me->m_content[me->m_readIdx].m_size;
 941              		.loc 1 421 0
 942              		.thumb
 943              		.syntax unified
 944 001e 2368     		ldr	r3, [r4]
 945 0020 2289     		ldrh	r2, [r4, #8]
 946 0022 03EBC203 		add	r3, r3, r2, lsl #3
 947 0026 9B88     		ldrh	r3, [r3, #4]
 948 0028 3B80     		strh	r3, [r7]	@ movhi
 422:source\bsw\msg/message.c ****         *ppData = me->m_content[me->m_readIdx].mp_memory;
 949              		.loc 1 422 0
 950 002a 2368     		ldr	r3, [r4]
 951 002c 2289     		ldrh	r2, [r4, #8]
 952 002e 53F83230 		ldr	r3, [r3, r2, lsl #3]
 953 0032 2B60     		str	r3, [r5]
 423:source\bsw\msg/message.c ****         *id = me->m_content[me->m_readIdx].m_msgId;
 954              		.loc 1 423 0
 955 0034 2368     		ldr	r3, [r4]
 956 0036 2289     		ldrh	r2, [r4, #8]
 957 0038 03EBC203 		add	r3, r3, r2, lsl #3
 958 003c DB88     		ldrh	r3, [r3, #6]	@ unaligned
 959 003e 3380     		strh	r3, [r6]	@ unaligned
 425:source\bsw\msg/message.c ****         if (0 != *ppData && RC_SUCCESS != MSG_checkAllocation(*ppData) )
 960              		.loc 1 425 0
 961 0040 2868     		ldr	r0, [r5]
 962 0042 98B1     		cbz	r0, .L61
 425:source\bsw\msg/message.c ****         if (0 != *ppData && RC_SUCCESS != MSG_checkAllocation(*ppData) )
 963              		.loc 1 425 0 is_stmt 0 discriminator 1
 964 0044 FFF7FEFF 		bl	MSG_checkAllocation
 965              	.LVL90:
ARM GAS  C:\Users\agraw\AppData\Local\Temp\ccWhtEoP.s 			page 28


 966 0048 80B1     		cbz	r0, .L61
 967              	.LBB20:
 429:source\bsw\msg/message.c ****             LOG_E("MSG","MSG_receiveMessageRef got wrong adress %x", (uint32_t)*ppData);
 968              		.loc 1 429 0 is_stmt 1 discriminator 1
 969 004a 2AAE     		add	r6, sp, #168
 970              	.LVL91:
 971 004c 0323     		movs	r3, #3
 972 004e 06F8A83D 		strb	r3, [r6, #-168]!
 973 0052 214B     		ldr	r3, .L66
 974 0054 1868     		ldr	r0, [r3]	@ unaligned
 975 0056 CDF80100 		str	r0, [sp, #1]	@ unaligned
 976 005a 2A68     		ldr	r2, [r5]
 977 005c 1F49     		ldr	r1, .L66+4
 978 005e 0DF11100 		add	r0, sp, #17
 979 0062 FFF7FEFF 		bl	sprintf
 980              	.LVL92:
 981 0066 3046     		mov	r0, r6
 982 0068 FFF7FEFF 		bl	LOG_send
 983              	.LVL93:
 984              	.L61:
 985              	.LBE20:
 432:source\bsw\msg/message.c ****         me->m_readIdx++;
 986              		.loc 1 432 0
 987 006c 2389     		ldrh	r3, [r4, #8]
 988 006e 0133     		adds	r3, r3, #1
 989 0070 9BB2     		uxth	r3, r3
 433:source\bsw\msg/message.c ****         me->m_readIdx %= me->m_size;
 990              		.loc 1 433 0
 991 0072 A188     		ldrh	r1, [r4, #4]
 992 0074 B3FBF1F2 		udiv	r2, r3, r1
 993 0078 01FB1233 		mls	r3, r1, r2, r3
 994 007c 2381     		strh	r3, [r4, #8]	@ movhi
 434:source\bsw\msg/message.c ****         me->m_readCount++;
 995              		.loc 1 434 0
 996 007e 2369     		ldr	r3, [r4, #16]
 997 0080 0133     		adds	r3, r3, #1
 998 0082 2361     		str	r3, [r4, #16]
 436:source\bsw\msg/message.c ****         MSG_EI;
 999              		.loc 1 436 0
 1000              		.syntax unified
 1001              	@ 436 "source\bsw\msg\message.c" 1
 1002 0084 62B6     		CPSIE   i
 1003              	@ 0 "" 2
 437:source\bsw\msg/message.c ****         if (me->m_ressource != 0) ReleaseResource(me->m_ressource);
 1004              		.loc 1 437 0
 1005              		.thumb
 1006              		.syntax unified
 1007 0086 E069     		ldr	r0, [r4, #28]
 1008 0088 18B3     		cbz	r0, .L64
 437:source\bsw\msg/message.c ****         if (me->m_ressource != 0) ReleaseResource(me->m_ressource);
 1009              		.loc 1 437 0 is_stmt 0 discriminator 1
 1010 008a FFF7FEFF 		bl	EE_oo_ReleaseResource
 1011              	.LVL94:
 439:source\bsw\msg/message.c ****         return RC_SUCCESS;
 1012              		.loc 1 439 0 is_stmt 1 discriminator 1
 1013 008e 0020     		movs	r0, #0
 1014 0090 20E0     		b	.L62
ARM GAS  C:\Users\agraw\AppData\Local\Temp\ccWhtEoP.s 			page 29


 1015              	.LVL95:
 1016              	.L59:
 1017              	.LBB21:
 443:source\bsw\msg/message.c ****         LOG_I("MSG","MSG_receiveMessageRef buffer empty");
 1018              		.loc 1 443 0 discriminator 1
 1019 0092 0123     		movs	r3, #1
 1020 0094 8DF80030 		strb	r3, [sp]
 1021 0098 0F4B     		ldr	r3, .L66
 1022 009a 1868     		ldr	r0, [r3]	@ unaligned
 1023 009c CDF80100 		str	r0, [sp, #1]	@ unaligned
 1024 00a0 0F4E     		ldr	r6, .L66+8
 1025              	.LVL96:
 1026 00a2 0DF11104 		add	r4, sp, #17
 1027              	.LVL97:
 1028 00a6 06F12007 		add	r7, r6, #32
 1029              	.LVL98:
 1030              	.L63:
 1031 00aa 3546     		mov	r5, r6
 1032 00ac 0FCD     		ldmia	r5!, {r0, r1, r2, r3}
 1033 00ae 2060     		str	r0, [r4]	@ unaligned
 1034 00b0 6160     		str	r1, [r4, #4]	@ unaligned
 1035 00b2 A260     		str	r2, [r4, #8]	@ unaligned
 1036 00b4 E360     		str	r3, [r4, #12]	@ unaligned
 1037 00b6 2E46     		mov	r6, r5
 1038 00b8 1034     		adds	r4, r4, #16
 1039 00ba BD42     		cmp	r5, r7
 1040 00bc F5D1     		bne	.L63
 1041 00be 2A88     		ldrh	r2, [r5]	@ unaligned
 1042 00c0 AB78     		ldrb	r3, [r5, #2]	@ zero_extendqisi2
 1043 00c2 2280     		strh	r2, [r4]	@ unaligned
 1044 00c4 A370     		strb	r3, [r4, #2]
 1045 00c6 6846     		mov	r0, sp
 1046 00c8 FFF7FEFF 		bl	LOG_send
 1047              	.LVL99:
 1048              	.LBE21:
 444:source\bsw\msg/message.c ****         return RC_ERROR_BUFFER_EMTPY;
 1049              		.loc 1 444 0 discriminator 1
 1050 00cc 6FF00800 		mvn	r0, #8
 1051 00d0 00E0     		b	.L62
 1052              	.LVL100:
 1053              	.L64:
 439:source\bsw\msg/message.c ****         return RC_SUCCESS;
 1054              		.loc 1 439 0
 1055 00d2 0020     		movs	r0, #0
 1056              	.LVL101:
 1057              	.L62:
 447:source\bsw\msg/message.c **** }
 1058              		.loc 1 447 0
 1059 00d4 2BB0     		add	sp, sp, #172
 1060              		.cfi_def_cfa_offset 20
 1061              		@ sp needed
 1062 00d6 F0BD     		pop	{r4, r5, r6, r7, pc}
 1063              	.L67:
 1064              		.align	2
 1065              	.L66:
 1066 00d8 00000000 		.word	.LC0
 1067 00dc 8C010000 		.word	.LC11
ARM GAS  C:\Users\agraw\AppData\Local\Temp\ccWhtEoP.s 			page 30


 1068 00e0 B8010000 		.word	.LC12
 1069              		.cfi_endproc
 1070              	.LFE120:
 1071              		.size	MSG_receiveMessageRef, .-MSG_receiveMessageRef
 1072              		.section	.rodata.str1.4,"aMS",%progbits,1
 1073              		.align	2
 1074              	.LC0:
 1075 0000 4D534700 		.ascii	"MSG\000"
 1076              	.LC1:
 1077 0004 4D53475F 		.ascii	"MSG_sendMessage static buffer too small, truncating"
 1077      73656E64 
 1077      4D657373 
 1077      61676520 
 1077      73746174 
 1078 0037 20747261 		.ascii	" transmitted message\000"
 1078      6E736D69 
 1078      74746564 
 1078      206D6573 
 1078      73616765 
 1079              	.LC2:
 1080 004c 4D53475F 		.ascii	"MSG_sendMessage buffer full\000"
 1080      73656E64 
 1080      4D657373 
 1080      61676520 
 1080      62756666 
 1081              	.LC3:
 1082 0068 4D53475F 		.ascii	"MSG_receiveMessage bad size\000"
 1082      72656365 
 1082      6976654D 
 1082      65737361 
 1082      67652062 
 1083              	.LC4:
 1084 0084 4D53475F 		.ascii	"MSG_receiveMessage buffer empty\000"
 1084      72656365 
 1084      6976654D 
 1084      65737361 
 1084      67652062 
 1085              	.LC5:
 1086 00a4 4D53475F 		.ascii	"MSG_getSizeAndIdOfNextMessage empty buffer\000"
 1086      67657453 
 1086      697A6541 
 1086      6E644964 
 1086      4F664E65 
 1087 00cf 00       		.space	1
 1088              	.LC6:
 1089 00d0 53697A65 		.ascii	"Size = %d, Filllevel = %d, ReadIndex = %d, WriteInd"
 1089      203D2025 
 1089      642C2046 
 1089      696C6C6C 
 1089      6576656C 
 1090 0103 6578203D 		.ascii	"ex = %d\000"
 1090      20256400 
 1091 010b 00       		.space	1
 1092              	.LC7:
 1093 010c 20202043 		.ascii	"   CONT\000"
 1093      4F4E5400 
 1094              	.LC8:
ARM GAS  C:\Users\agraw\AppData\Local\Temp\ccWhtEoP.s 			page 31


 1095 0114 5B25645D 		.ascii	"[%d] Adress = %x, Size = %d\000"
 1095      20416472 
 1095      65737320 
 1095      3D202578 
 1095      2C205369 
 1096              	.LC9:
 1097 0130 4D656D6F 		.ascii	"Memory allocation/adress out of of heap area: %x (%"
 1097      72792061 
 1097      6C6C6F63 
 1097      6174696F 
 1097      6E2F6164 
 1098 0163 78202D20 		.ascii	"x - %x)\000"
 1098      25782900 
 1099 016b 00       		.space	1
 1100              	.LC10:
 1101 016c 4572726F 		.ascii	"Error allocating static memory\000"
 1101      7220616C 
 1101      6C6F6361 
 1101      74696E67 
 1101      20737461 
 1102 018b 00       		.space	1
 1103              	.LC11:
 1104 018c 4D53475F 		.ascii	"MSG_receiveMessageRef got wrong adress %x\000"
 1104      72656365 
 1104      6976654D 
 1104      65737361 
 1104      67655265 
 1105 01b6 0000     		.space	2
 1106              	.LC12:
 1107 01b8 4D53475F 		.ascii	"MSG_receiveMessageRef buffer empty\000"
 1107      72656365 
 1107      6976654D 
 1107      65737361 
 1107      67655265 
 1108              		.text
 1109              	.Letext0:
 1110              		.file 2 "c:\\program files (x86)\\cypress\\psoc creator\\4.4\\psoc creator\\import\\gnu\\arm\\5.4.
 1111              		.file 3 ".\\source\\bsw/global.h"
 1112              		.file 4 "c:\\program files (x86)\\cypress\\psoc creator\\4.4\\psoc creator\\import\\gnu\\arm\\5.4.
 1113              		.file 5 "Generated_Source\\PSoC5/cytypes.h"
 1114              		.file 6 "Generated_Source\\PSoC5/ErikaOS_1_common_ee_types.inc"
 1115              		.file 7 "Generated_Source\\PSoC5/ErikaOS_1_cortex_mx_ee_cpu.inc"
 1116              		.file 8 "Generated_Source\\PSoC5/ErikaOS_1_ee_oo_common.inc"
 1117              		.file 9 "source\\bsw\\msg\\message_cfg.h"
 1118              		.file 10 "source\\bsw\\msg\\message.h"
 1119              		.file 11 ".\\source\\bsw\\services/logging.h"
 1120              		.file 12 "Generated_Source\\PSoC5/ErikaOS_1_ee_oo_intfunc.inc"
 1121              		.file 13 "Generated_Source\\PSoC5/ErikaOS_1_cortex_mx_ee_context.inc"
 1122              		.file 14 "Generated_Source\\PSoC5/ErikaOS_1_common_ee_primitives.inc"
 1123              		.file 15 "Generated_Source\\PSoC5/core_cm3.h"
 1124              		.file 16 "Generated_Source\\PSoC5/ErikaOS_1_ee_oo_kernel.inc"
 1125              		.file 17 "c:\\program files (x86)\\cypress\\psoc creator\\4.4\\psoc creator\\import\\gnu\\arm\\5.4
 1126              		.file 18 "c:\\program files (x86)\\cypress\\psoc creator\\4.4\\psoc creator\\import\\gnu\\arm\\5.4