ARM GAS  C:\Users\agraw\AppData\Local\Temp\cc0JNSxg.s 			page 1


   1              		.syntax unified
   2              		.cpu cortex-m3
   3              		.fpu softvfp
   4              		.eabi_attribute 20, 1
   5              		.eabi_attribute 21, 1
   6              		.eabi_attribute 23, 3
   7              		.eabi_attribute 24, 1
   8              		.eabi_attribute 25, 1
   9              		.eabi_attribute 26, 1
  10              		.eabi_attribute 30, 1
  11              		.eabi_attribute 34, 1
  12              		.eabi_attribute 18, 4
  13              		.thumb
  14              		.syntax unified
  15              		.file	"ringbuffer.c"
  16              		.text
  17              	.Ltext0:
  18              		.cfi_sections	.debug_frame
  19              		.section	.text.RB_clear,"ax",%progbits
  20              		.align	2
  21              		.global	RB_clear
  22              		.thumb
  23              		.thumb_func
  24              		.type	RB_clear, %function
  25              	RB_clear:
  26              	.LFB115:
  27              		.file 1 "source\\bsw\\msg\\ringbuffer.c"
   1:source\bsw\msg/ringbuffer.c **** /**
   2:source\bsw\msg/ringbuffer.c **** * \file ringbuffer
   3:source\bsw\msg/ringbuffer.c **** * \author P. Fromm
   4:source\bsw\msg/ringbuffer.c **** * \date 11/2016
   5:source\bsw\msg/ringbuffer.c **** *
   6:source\bsw\msg/ringbuffer.c **** * \brief ringbuffer
   7:source\bsw\msg/ringbuffer.c **** *
   8:source\bsw\msg/ringbuffer.c **** * \copyright Copyright ©2016
   9:source\bsw\msg/ringbuffer.c **** * Department of electrical engineering and information technology, Hochschule Darmstadt - Universit
  10:source\bsw\msg/ringbuffer.c **** * Permission to use, copy, modify, and distribute this software and its documentation for education
  11:source\bsw\msg/ringbuffer.c **** * (unless permitted by h_da) and official h_da projects, is hereby granted for enrolled students of
  12:source\bsw\msg/ringbuffer.c **** * this paragraph and the following paragraph appear in all copies, modifications, and distributions
  13:source\bsw\msg/ringbuffer.c **** * Contact Prof.Dr.-Ing. Peter Fromm, peter.fromm@h-da.de, Birkenweg 8 64295 Darmstadt - GERMANY for
  14:source\bsw\msg/ringbuffer.c **** *
  15:source\bsw\msg/ringbuffer.c **** * \warning This software is a PROTOTYPE version and is not designed or intended for use in producti
  16:source\bsw\msg/ringbuffer.c **** * The user represents and warrants that it will NOT use or redistribute the Software for such purpo
  17:source\bsw\msg/ringbuffer.c **** * This prototype is for research purposes only. This software is provided "AS IS," without a warran
  18:source\bsw\msg/ringbuffer.c **** */
  19:source\bsw\msg/ringbuffer.c **** 
  20:source\bsw\msg/ringbuffer.c **** /*****************************************************************************/
  21:source\bsw\msg/ringbuffer.c **** /* Include files                                                             */
  22:source\bsw\msg/ringbuffer.c **** /*****************************************************************************/
  23:source\bsw\msg/ringbuffer.c **** 
  24:source\bsw\msg/ringbuffer.c **** #include <stdlib.h>
  25:source\bsw\msg/ringbuffer.c **** 
  26:source\bsw\msg/ringbuffer.c **** #include "ringbuffer.h"
  27:source\bsw\msg/ringbuffer.c **** 
  28:source\bsw\msg/ringbuffer.c **** /*****************************************************************************/
  29:source\bsw\msg/ringbuffer.c **** /* Local pre-processor symbols/macros ('#define')                            */
  30:source\bsw\msg/ringbuffer.c **** /*****************************************************************************/
ARM GAS  C:\Users\agraw\AppData\Local\Temp\cc0JNSxg.s 			page 2


  31:source\bsw\msg/ringbuffer.c **** 
  32:source\bsw\msg/ringbuffer.c **** /*****************************************************************************/
  33:source\bsw\msg/ringbuffer.c **** /* Global variable definitions (declared in header file with 'extern')       */
  34:source\bsw\msg/ringbuffer.c **** /*****************************************************************************/
  35:source\bsw\msg/ringbuffer.c **** 
  36:source\bsw\msg/ringbuffer.c **** /*****************************************************************************/
  37:source\bsw\msg/ringbuffer.c **** /* Local type definitions ('typedef')                                        */
  38:source\bsw\msg/ringbuffer.c **** /*****************************************************************************/
  39:source\bsw\msg/ringbuffer.c **** 
  40:source\bsw\msg/ringbuffer.c **** /*****************************************************************************/
  41:source\bsw\msg/ringbuffer.c **** /* Local variable definitions ('static')                                     */
  42:source\bsw\msg/ringbuffer.c **** /*****************************************************************************/
  43:source\bsw\msg/ringbuffer.c **** 
  44:source\bsw\msg/ringbuffer.c **** 
  45:source\bsw\msg/ringbuffer.c **** 
  46:source\bsw\msg/ringbuffer.c **** /*****************************************************************************/
  47:source\bsw\msg/ringbuffer.c **** /* Local function prototypes ('static')                                      */
  48:source\bsw\msg/ringbuffer.c **** /*****************************************************************************/
  49:source\bsw\msg/ringbuffer.c **** 
  50:source\bsw\msg/ringbuffer.c **** 
  51:source\bsw\msg/ringbuffer.c **** /*****************************************************************************/
  52:source\bsw\msg/ringbuffer.c **** /* Function implementation - global ('extern') and local ('static')          */
  53:source\bsw\msg/ringbuffer.c **** /*****************************************************************************/
  54:source\bsw\msg/ringbuffer.c **** 
  55:source\bsw\msg/ringbuffer.c **** /**
  56:source\bsw\msg/ringbuffer.c ****  * Init function for ringbuffer. Use pBuffer paramater to allocate memory directly or via heap.
  57:source\bsw\msg/ringbuffer.c ****  * \param ringbuffer_t* const me    : [OUT] pointer to the ringbuffer object
  58:source\bsw\msg/ringbuffer.c ****  * \param RB_size_t size            : [IN]  size of the ringbuffer in byte. 
  59:source\bsw\msg/ringbuffer.c ****  * \param RB_data_t* pBuffer        : [IN]  pointer to the buffer. If set to 0, malloc will be used
  60:source\bsw\msg/ringbuffer.c ****  * \return RC_ERRORMEMORY in case memory allocation failed 
  61:source\bsw\msg/ringbuffer.c ****  */
  62:source\bsw\msg/ringbuffer.c **** RC_t RB_init(RB_ringbuffer_t* const me, RB_size_t size, RB_data_t* pBuffer)
  63:source\bsw\msg/ringbuffer.c **** {
  64:source\bsw\msg/ringbuffer.c ****     me->m_size = size;
  65:source\bsw\msg/ringbuffer.c **** 
  66:source\bsw\msg/ringbuffer.c ****     if (pBuffer != 0)
  67:source\bsw\msg/ringbuffer.c ****     {
  68:source\bsw\msg/ringbuffer.c ****         //Some buffer is provided from the outside
  69:source\bsw\msg/ringbuffer.c ****         //It is the user's responsibility to ensure that size and pBuffer parameter are in sync
  70:source\bsw\msg/ringbuffer.c ****         me->m_bufOnHeap = FALSE;
  71:source\bsw\msg/ringbuffer.c ****         me->m_pBuffer = pBuffer;
  72:source\bsw\msg/ringbuffer.c ****     }
  73:source\bsw\msg/ringbuffer.c ****     else
  74:source\bsw\msg/ringbuffer.c ****     {
  75:source\bsw\msg/ringbuffer.c ****         //No buffer is provided, we use the heap
  76:source\bsw\msg/ringbuffer.c ****         me->m_bufOnHeap = TRUE;
  77:source\bsw\msg/ringbuffer.c ****         me->m_pBuffer = (RB_data_t*)malloc(me->m_size * sizeof(RB_data_t));
  78:source\bsw\msg/ringbuffer.c ****         
  79:source\bsw\msg/ringbuffer.c ****         if (0 == me->m_pBuffer) return RC_ERROR_MEMORY;
  80:source\bsw\msg/ringbuffer.c ****     }
  81:source\bsw\msg/ringbuffer.c ****     
  82:source\bsw\msg/ringbuffer.c ****     return RB_clear(me);
  83:source\bsw\msg/ringbuffer.c **** }
  84:source\bsw\msg/ringbuffer.c **** 
  85:source\bsw\msg/ringbuffer.c **** /**
  86:source\bsw\msg/ringbuffer.c ****  * Write function for ringbuffer
  87:source\bsw\msg/ringbuffer.c ****  * \param RB_ringbuffer_t* const me     : [IN/OUT] pointer to the ringbuffer object
ARM GAS  C:\Users\agraw\AppData\Local\Temp\cc0JNSxg.s 			page 3


  88:source\bsw\msg/ringbuffer.c ****  * \param RB_data_t const *const data   : [IN]     element which will be stored
  89:source\bsw\msg/ringbuffer.c ****  * \return RC_ERROR_BUFFER_FULL in case no empty space is available anymore
  90:source\bsw\msg/ringbuffer.c ****  */
  91:source\bsw\msg/ringbuffer.c **** RC_t RB_put(RB_ringbuffer_t* const me, RB_data_t const *const data)
  92:source\bsw\msg/ringbuffer.c **** {
  93:source\bsw\msg/ringbuffer.c ****     
  94:source\bsw\msg/ringbuffer.c ****     RC_t ret = RC_SUCCESS;
  95:source\bsw\msg/ringbuffer.c ****     
  96:source\bsw\msg/ringbuffer.c ****     RB_enterCriticalRegion();
  97:source\bsw\msg/ringbuffer.c ****     
  98:source\bsw\msg/ringbuffer.c ****     RB_size_t fillLevel = 0;
  99:source\bsw\msg/ringbuffer.c ****     if ( (RC_SUCCESS == RB_getFillLevel(me, &fillLevel)) && (fillLevel < me->m_size) )
 100:source\bsw\msg/ringbuffer.c ****     {
 101:source\bsw\msg/ringbuffer.c ****         me->m_pBuffer[me->m_writeIndex++] = *data;
 102:source\bsw\msg/ringbuffer.c ****         me->m_writeIndex %= me->m_size;
 103:source\bsw\msg/ringbuffer.c ****         me->m_countPut++;
 104:source\bsw\msg/ringbuffer.c ****     }
 105:source\bsw\msg/ringbuffer.c ****     else
 106:source\bsw\msg/ringbuffer.c ****     {
 107:source\bsw\msg/ringbuffer.c ****         ret =  RC_ERROR_BUFFER_FULL;
 108:source\bsw\msg/ringbuffer.c ****     }
 109:source\bsw\msg/ringbuffer.c ****     
 110:source\bsw\msg/ringbuffer.c ****     RB_leaveCriticalRegion();
 111:source\bsw\msg/ringbuffer.c ****     
 112:source\bsw\msg/ringbuffer.c ****     return ret;
 113:source\bsw\msg/ringbuffer.c **** }
 114:source\bsw\msg/ringbuffer.c **** 
 115:source\bsw\msg/ringbuffer.c **** /**
 116:source\bsw\msg/ringbuffer.c ****  * Read function for ringbuffer
 117:source\bsw\msg/ringbuffer.c ****  * \param RB_ringbuffer_t* const me     : [IN/OUT] pointer to the ringbuffer object
 118:source\bsw\msg/ringbuffer.c ****  * \param RB_data_t* data               : [OUT]    pointer to the element read from the buffer
 119:source\bsw\msg/ringbuffer.c ****  * \return RC_ERROR_BUFFER_EMTPY if buffer was empty
 120:source\bsw\msg/ringbuffer.c ****  */
 121:source\bsw\msg/ringbuffer.c **** RC_t RB_get(RB_ringbuffer_t* const me, RB_data_t* const data)
 122:source\bsw\msg/ringbuffer.c **** {
 123:source\bsw\msg/ringbuffer.c ****     RC_t ret = RC_SUCCESS;
 124:source\bsw\msg/ringbuffer.c ****     
 125:source\bsw\msg/ringbuffer.c ****     RB_enterCriticalRegion();
 126:source\bsw\msg/ringbuffer.c ****     
 127:source\bsw\msg/ringbuffer.c ****     RB_size_t fillLevel = 0;
 128:source\bsw\msg/ringbuffer.c ****     if ( (RC_SUCCESS == RB_getFillLevel(me, &fillLevel)) && (fillLevel > 0) )
 129:source\bsw\msg/ringbuffer.c ****     {
 130:source\bsw\msg/ringbuffer.c ****         *data = me->m_pBuffer[me->m_readIndex++];
 131:source\bsw\msg/ringbuffer.c ****         me->m_readIndex %= me->m_size;
 132:source\bsw\msg/ringbuffer.c ****         me->m_countGet++;
 133:source\bsw\msg/ringbuffer.c ****         
 134:source\bsw\msg/ringbuffer.c ****     }
 135:source\bsw\msg/ringbuffer.c ****     else
 136:source\bsw\msg/ringbuffer.c ****     {
 137:source\bsw\msg/ringbuffer.c ****         ret =  RC_ERROR_BUFFER_EMTPY;
 138:source\bsw\msg/ringbuffer.c ****     }
 139:source\bsw\msg/ringbuffer.c ****     
 140:source\bsw\msg/ringbuffer.c ****     RB_leaveCriticalRegion();
 141:source\bsw\msg/ringbuffer.c ****     
 142:source\bsw\msg/ringbuffer.c ****     return ret;    
 143:source\bsw\msg/ringbuffer.c ****     
 144:source\bsw\msg/ringbuffer.c **** }
ARM GAS  C:\Users\agraw\AppData\Local\Temp\cc0JNSxg.s 			page 4


 145:source\bsw\msg/ringbuffer.c **** 
 146:source\bsw\msg/ringbuffer.c **** /**
 147:source\bsw\msg/ringbuffer.c ****  * Read function for ringbuffer
 148:source\bsw\msg/ringbuffer.c ****  * \param RB_ringbuffer_t* const me     : [OUT] pointer to the ringbuffer object
 149:source\bsw\msg/ringbuffer.c ****  * \return RC_SUCCESS
 150:source\bsw\msg/ringbuffer.c ****  */
 151:source\bsw\msg/ringbuffer.c **** RC_t RB_clear(RB_ringbuffer_t* const me)
 152:source\bsw\msg/ringbuffer.c **** {
  28              		.loc 1 152 0
  29              		.cfi_startproc
  30              		@ args = 0, pretend = 0, frame = 0
  31              		@ frame_needed = 0, uses_anonymous_args = 0
  32              		@ link register save eliminated.
  33              	.LVL0:
  34              	.LBB18:
  35              	.LBB19:
  36              		.file 2 "source\\bsw\\msg\\ringbuffer_cfg.h"
   1:source\bsw\msg/ringbuffer_cfg.h **** /**
   2:source\bsw\msg/ringbuffer_cfg.h **** * \file ringbuffer_cfg_.h
   3:source\bsw\msg/ringbuffer_cfg.h **** * \author Prof. P. Fromm
   4:source\bsw\msg/ringbuffer_cfg.h **** * \date 11/2016
   5:source\bsw\msg/ringbuffer_cfg.h **** *
   6:source\bsw\msg/ringbuffer_cfg.h **** * \brief ringbuffer configuration for uart ports and similar
   7:source\bsw\msg/ringbuffer_cfg.h **** *
   8:source\bsw\msg/ringbuffer_cfg.h **** *
   9:source\bsw\msg/ringbuffer_cfg.h **** * \note none
  10:source\bsw\msg/ringbuffer_cfg.h **** * \todo none
  11:source\bsw\msg/ringbuffer_cfg.h **** * \warning none
  12:source\bsw\msg/ringbuffer_cfg.h **** *
  13:source\bsw\msg/ringbuffer_cfg.h **** *  Changelog:\n
  14:source\bsw\msg/ringbuffer_cfg.h **** *  - <version; data of change; author>
  15:source\bsw\msg/ringbuffer_cfg.h **** *            - <description of the change>
  16:source\bsw\msg/ringbuffer_cfg.h **** *
  17:source\bsw\msg/ringbuffer_cfg.h **** * \copyright Copyright ©2016
  18:source\bsw\msg/ringbuffer_cfg.h **** * Department of electrical engineering and information technology, Hochschule Darmstadt - Universit
  19:source\bsw\msg/ringbuffer_cfg.h **** * Permission to use, copy, modify, and distribute this software and its documentation for education
  20:source\bsw\msg/ringbuffer_cfg.h **** * (unless permitted by h_da) and official h_da projects, is hereby granted for enrolled students of
  21:source\bsw\msg/ringbuffer_cfg.h **** * this paragraph and the following paragraph appear in all copies, modifications, and distributions
  22:source\bsw\msg/ringbuffer_cfg.h **** * Contact Prof.Dr.-Ing. Peter Fromm, peter.fromm@h-da.de, Birkenweg 8 64295 Darmstadt - GERMANY for
  23:source\bsw\msg/ringbuffer_cfg.h **** *
  24:source\bsw\msg/ringbuffer_cfg.h **** * \warning This software is a PROTOTYPE version and is not designed or intended for use in producti
  25:source\bsw\msg/ringbuffer_cfg.h **** * The user represents and warrants that it will NOT use or redistribute the Software for such purpo
  26:source\bsw\msg/ringbuffer_cfg.h **** * This prototype is for research purposes only. This software is provided "AS IS," without a warran
  27:source\bsw\msg/ringbuffer_cfg.h **** */
  28:source\bsw\msg/ringbuffer_cfg.h **** 
  29:source\bsw\msg/ringbuffer_cfg.h **** #ifndef RINGBUFFER_CFG_H
  30:source\bsw\msg/ringbuffer_cfg.h **** #define RINGBUFFER_CFG_H
  31:source\bsw\msg/ringbuffer_cfg.h **** 
  32:source\bsw\msg/ringbuffer_cfg.h **** #include "global.h"
  33:source\bsw\msg/ringbuffer_cfg.h **** #include "project.h"
  34:source\bsw\msg/ringbuffer_cfg.h **** 
  35:source\bsw\msg/ringbuffer_cfg.h ****     
  36:source\bsw\msg/ringbuffer_cfg.h **** /*****************************************************************************/
  37:source\bsw\msg/ringbuffer_cfg.h **** /* Global pre-processor symbols/macros ('#define')                           */
  38:source\bsw\msg/ringbuffer_cfg.h **** /*****************************************************************************/
  39:source\bsw\msg/ringbuffer_cfg.h **** 
  40:source\bsw\msg/ringbuffer_cfg.h **** 
ARM GAS  C:\Users\agraw\AppData\Local\Temp\cc0JNSxg.s 			page 5


  41:source\bsw\msg/ringbuffer_cfg.h **** 
  42:source\bsw\msg/ringbuffer_cfg.h **** 
  43:source\bsw\msg/ringbuffer_cfg.h **** /*****************************************************************************/
  44:source\bsw\msg/ringbuffer_cfg.h **** /* Type definitions                                                          */
  45:source\bsw\msg/ringbuffer_cfg.h **** /*****************************************************************************/
  46:source\bsw\msg/ringbuffer_cfg.h **** 
  47:source\bsw\msg/ringbuffer_cfg.h **** /**
  48:source\bsw\msg/ringbuffer_cfg.h ****  * Datatype for the array size, typically uint16_t
  49:source\bsw\msg/ringbuffer_cfg.h ****  */
  50:source\bsw\msg/ringbuffer_cfg.h **** typedef uint16_t RB_size_t;
  51:source\bsw\msg/ringbuffer_cfg.h ****     
  52:source\bsw\msg/ringbuffer_cfg.h **** /**
  53:source\bsw\msg/ringbuffer_cfg.h ****  * Datatype for the buffer content
  54:source\bsw\msg/ringbuffer_cfg.h ****  */
  55:source\bsw\msg/ringbuffer_cfg.h **** typedef uint8_t RB_data_t;
  56:source\bsw\msg/ringbuffer_cfg.h **** 
  57:source\bsw\msg/ringbuffer_cfg.h **** /**
  58:source\bsw\msg/ringbuffer_cfg.h ****  * Entering a critical section. Add your user code here, e.g. IRQ disable, mutex,...
  59:source\bsw\msg/ringbuffer_cfg.h ****  * Note: As Erika ressources do not work in interrupts, we use the interrupt disable option.
  60:source\bsw\msg/ringbuffer_cfg.h ****  */
  61:source\bsw\msg/ringbuffer_cfg.h **** static inline void RB_enterCriticalRegion()
  62:source\bsw\msg/ringbuffer_cfg.h **** {
  63:source\bsw\msg/ringbuffer_cfg.h ****     CyGlobalIntDisable
  37              		.loc 2 63 0
  38              		.syntax unified
  39              	@ 63 "source\bsw\msg\ringbuffer_cfg.h" 1
  40 0000 72B6     		CPSID   i
  41              	@ 0 "" 2
  42              		.thumb
  43              		.syntax unified
  44              	.LBE19:
  45              	.LBE18:
 153:source\bsw\msg/ringbuffer.c ****     RB_enterCriticalRegion();
 154:source\bsw\msg/ringbuffer.c ****     
 155:source\bsw\msg/ringbuffer.c ****     me->m_readIndex = 0;
  46              		.loc 1 155 0
  47 0002 0023     		movs	r3, #0
  48 0004 4380     		strh	r3, [r0, #2]	@ movhi
 156:source\bsw\msg/ringbuffer.c ****     me->m_writeIndex = 0;
  49              		.loc 1 156 0
  50 0006 8380     		strh	r3, [r0, #4]	@ movhi
 157:source\bsw\msg/ringbuffer.c ****     me->m_countGet = 0;
  51              		.loc 1 157 0
  52 0008 C360     		str	r3, [r0, #12]
 158:source\bsw\msg/ringbuffer.c ****     me->m_countPut = 0;
  53              		.loc 1 158 0
  54 000a 8360     		str	r3, [r0, #8]
  55              	.LBB20:
  56              	.LBB21:
  64:source\bsw\msg/ringbuffer_cfg.h **** }
  65:source\bsw\msg/ringbuffer_cfg.h **** 
  66:source\bsw\msg/ringbuffer_cfg.h **** /**
  67:source\bsw\msg/ringbuffer_cfg.h ****  * Entering a critical section. Add your user code here, e.g. IRQ disable, mutex,...
  68:source\bsw\msg/ringbuffer_cfg.h ****  */
  69:source\bsw\msg/ringbuffer_cfg.h **** static inline void RB_leaveCriticalRegion()
  70:source\bsw\msg/ringbuffer_cfg.h **** {
  71:source\bsw\msg/ringbuffer_cfg.h ****     CyGlobalIntEnable
ARM GAS  C:\Users\agraw\AppData\Local\Temp\cc0JNSxg.s 			page 6


  57              		.loc 2 71 0
  58              		.syntax unified
  59              	@ 71 "source\bsw\msg\ringbuffer_cfg.h" 1
  60 000c 62B6     		CPSIE   i
  61              	@ 0 "" 2
  62              		.thumb
  63              		.syntax unified
  64              	.LBE21:
  65              	.LBE20:
 159:source\bsw\msg/ringbuffer.c ****     
 160:source\bsw\msg/ringbuffer.c ****     RB_leaveCriticalRegion();
 161:source\bsw\msg/ringbuffer.c ****     
 162:source\bsw\msg/ringbuffer.c ****     return RC_SUCCESS;
 163:source\bsw\msg/ringbuffer.c **** }
  66              		.loc 1 163 0
  67 000e 1846     		mov	r0, r3
  68              	.LVL1:
  69 0010 7047     		bx	lr
  70              		.cfi_endproc
  71              	.LFE115:
  72              		.size	RB_clear, .-RB_clear
  73 0012 00BF     		.section	.text.RB_init,"ax",%progbits
  74              		.align	2
  75              		.global	RB_init
  76              		.thumb
  77              		.thumb_func
  78              		.type	RB_init, %function
  79              	RB_init:
  80              	.LFB112:
  63:source\bsw\msg/ringbuffer.c ****     me->m_size = size;
  81              		.loc 1 63 0
  82              		.cfi_startproc
  83              		@ args = 0, pretend = 0, frame = 0
  84              		@ frame_needed = 0, uses_anonymous_args = 0
  85              	.LVL2:
  86 0000 10B5     		push	{r4, lr}
  87              		.cfi_def_cfa_offset 8
  88              		.cfi_offset 4, -8
  89              		.cfi_offset 14, -4
  90 0002 0446     		mov	r4, r0
  64:source\bsw\msg/ringbuffer.c **** 
  91              		.loc 1 64 0
  92 0004 0180     		strh	r1, [r0]	@ movhi
  66:source\bsw\msg/ringbuffer.c ****     {
  93              		.loc 1 66 0
  94 0006 22B1     		cbz	r2, .L3
  95 0008 1346     		mov	r3, r2
  70:source\bsw\msg/ringbuffer.c ****         me->m_pBuffer = pBuffer;
  96              		.loc 1 70 0
  97 000a 0022     		movs	r2, #0
  98              	.LVL3:
  99 000c 0275     		strb	r2, [r0, #20]
  71:source\bsw\msg/ringbuffer.c ****     }
 100              		.loc 1 71 0
 101 000e 0361     		str	r3, [r0, #16]
 102 0010 06E0     		b	.L4
 103              	.LVL4:
ARM GAS  C:\Users\agraw\AppData\Local\Temp\cc0JNSxg.s 			page 7


 104              	.L3:
  76:source\bsw\msg/ringbuffer.c ****         me->m_pBuffer = (RB_data_t*)malloc(me->m_size * sizeof(RB_data_t));
 105              		.loc 1 76 0
 106 0012 0123     		movs	r3, #1
 107 0014 0375     		strb	r3, [r0, #20]
  77:source\bsw\msg/ringbuffer.c ****         
 108              		.loc 1 77 0
 109 0016 0846     		mov	r0, r1
 110              	.LVL5:
 111 0018 FFF7FEFF 		bl	malloc
 112              	.LVL6:
 113 001c 2061     		str	r0, [r4, #16]
  79:source\bsw\msg/ringbuffer.c ****     }
 114              		.loc 1 79 0
 115 001e 18B1     		cbz	r0, .L6
 116              	.L4:
  82:source\bsw\msg/ringbuffer.c **** }
 117              		.loc 1 82 0
 118 0020 2046     		mov	r0, r4
 119 0022 FFF7FEFF 		bl	RB_clear
 120              	.LVL7:
 121 0026 10BD     		pop	{r4, pc}
 122              	.LVL8:
 123              	.L6:
  79:source\bsw\msg/ringbuffer.c ****     }
 124              		.loc 1 79 0
 125 0028 6FF00300 		mvn	r0, #3
  83:source\bsw\msg/ringbuffer.c **** 
 126              		.loc 1 83 0
 127 002c 10BD     		pop	{r4, pc}
 128              		.cfi_endproc
 129              	.LFE112:
 130              		.size	RB_init, .-RB_init
 131 002e 00BF     		.section	.text.RB_deinit,"ax",%progbits
 132              		.align	2
 133              		.global	RB_deinit
 134              		.thumb
 135              		.thumb_func
 136              		.type	RB_deinit, %function
 137              	RB_deinit:
 138              	.LFB116:
 164:source\bsw\msg/ringbuffer.c **** 
 165:source\bsw\msg/ringbuffer.c **** /**
 166:source\bsw\msg/ringbuffer.c ****  * DeInit function for ringbuffer
 167:source\bsw\msg/ringbuffer.c ****  * \param RB_ringbuffer_t* const me     : [IN] pointer to the ringbuffer object
 168:source\bsw\msg/ringbuffer.c ****  * \return RC_SUCCESS
 169:source\bsw\msg/ringbuffer.c ****  */
 170:source\bsw\msg/ringbuffer.c **** RC_t RB_deinit(RB_ringbuffer_t* const me)
 171:source\bsw\msg/ringbuffer.c **** {
 139              		.loc 1 171 0
 140              		.cfi_startproc
 141              		@ args = 0, pretend = 0, frame = 0
 142              		@ frame_needed = 0, uses_anonymous_args = 0
 143              	.LVL9:
 144 0000 08B5     		push	{r3, lr}
 145              		.cfi_def_cfa_offset 8
 146              		.cfi_offset 3, -8
ARM GAS  C:\Users\agraw\AppData\Local\Temp\cc0JNSxg.s 			page 8


 147              		.cfi_offset 14, -4
 172:source\bsw\msg/ringbuffer.c ****     if (me->m_bufOnHeap ==TRUE)
 148              		.loc 1 172 0
 149 0002 037D     		ldrb	r3, [r0, #20]	@ zero_extendqisi2
 150 0004 012B     		cmp	r3, #1
 151 0006 02D1     		bne	.L9
 173:source\bsw\msg/ringbuffer.c ****     {
 174:source\bsw\msg/ringbuffer.c ****         free(me->m_pBuffer);
 152              		.loc 1 174 0
 153 0008 0069     		ldr	r0, [r0, #16]
 154              	.LVL10:
 155 000a FFF7FEFF 		bl	free
 156              	.LVL11:
 157              	.L9:
 175:source\bsw\msg/ringbuffer.c ****     }
 176:source\bsw\msg/ringbuffer.c ****     
 177:source\bsw\msg/ringbuffer.c ****     return RC_SUCCESS;
 178:source\bsw\msg/ringbuffer.c **** }
 158              		.loc 1 178 0
 159 000e 0020     		movs	r0, #0
 160 0010 08BD     		pop	{r3, pc}
 161              		.cfi_endproc
 162              	.LFE116:
 163              		.size	RB_deinit, .-RB_deinit
 164 0012 00BF     		.section	.text.RB_getFillLevel,"ax",%progbits
 165              		.align	2
 166              		.global	RB_getFillLevel
 167              		.thumb
 168              		.thumb_func
 169              		.type	RB_getFillLevel, %function
 170              	RB_getFillLevel:
 171              	.LFB117:
 179:source\bsw\msg/ringbuffer.c **** 
 180:source\bsw\msg/ringbuffer.c **** 
 181:source\bsw\msg/ringbuffer.c **** 
 182:source\bsw\msg/ringbuffer.c **** /**
 183:source\bsw\msg/ringbuffer.c ****  * Get number of stored elements
 184:source\bsw\msg/ringbuffer.c ****  * \param RB_ringbuffer_t* const me     : [IN/OUT} pointer to the ringbuffer object
 185:source\bsw\msg/ringbuffer.c ****  * \param RB_size_t* pFillLevel         : [OUT]    pointer to fillLevel value
 186:source\bsw\msg/ringbuffer.c ****  * \return RC_ERROR_INVALID_STATE if countGet > countPut
 187:source\bsw\msg/ringbuffer.c ****  */
 188:source\bsw\msg/ringbuffer.c **** RC_t RB_getFillLevel(RB_ringbuffer_t* const me, RB_size_t* pFillLevel)
 189:source\bsw\msg/ringbuffer.c **** {
 172              		.loc 1 189 0
 173              		.cfi_startproc
 174              		@ args = 0, pretend = 0, frame = 0
 175              		@ frame_needed = 0, uses_anonymous_args = 0
 176              		@ link register save eliminated.
 177              	.LVL12:
 178              	.LBB22:
 179              	.LBB23:
  63:source\bsw\msg/ringbuffer_cfg.h **** }
 180              		.loc 2 63 0
 181              		.syntax unified
 182              	@ 63 "source\bsw\msg\ringbuffer_cfg.h" 1
 183 0000 72B6     		CPSID   i
 184              	@ 0 "" 2
ARM GAS  C:\Users\agraw\AppData\Local\Temp\cc0JNSxg.s 			page 9


 185              		.thumb
 186              		.syntax unified
 187              	.LBE23:
 188              	.LBE22:
 190:source\bsw\msg/ringbuffer.c ****     RC_t ret = RC_SUCCESS;
 191:source\bsw\msg/ringbuffer.c ****     
 192:source\bsw\msg/ringbuffer.c ****     RB_enterCriticalRegion();
 193:source\bsw\msg/ringbuffer.c ****     
 194:source\bsw\msg/ringbuffer.c ****     if (me->m_countPut >= me->m_countGet)
 189              		.loc 1 194 0
 190 0002 8368     		ldr	r3, [r0, #8]
 191 0004 C268     		ldr	r2, [r0, #12]
 192 0006 9342     		cmp	r3, r2
 193 0008 03D3     		bcc	.L13
 195:source\bsw\msg/ringbuffer.c ****     {
 196:source\bsw\msg/ringbuffer.c ****         *pFillLevel = (RB_size_t)(me->m_countPut - me->m_countGet);
 194              		.loc 1 196 0
 195 000a 9B1A     		subs	r3, r3, r2
 196 000c 0B80     		strh	r3, [r1]	@ movhi
 190:source\bsw\msg/ringbuffer.c ****     RC_t ret = RC_SUCCESS;
 197              		.loc 1 190 0
 198 000e 0020     		movs	r0, #0
 199              	.LVL13:
 200 0010 01E0     		b	.L12
 201              	.LVL14:
 202              	.L13:
 197:source\bsw\msg/ringbuffer.c ****     }
 198:source\bsw\msg/ringbuffer.c ****     else
 199:source\bsw\msg/ringbuffer.c ****     {
 200:source\bsw\msg/ringbuffer.c ****         ret = RC_ERROR_INVALID_STATE;
 203              		.loc 1 200 0
 204 0012 6FF01600 		mvn	r0, #22
 205              	.LVL15:
 206              	.L12:
 207              	.LBB24:
 208              	.LBB25:
 209              		.loc 2 71 0
 210              		.syntax unified
 211              	@ 71 "source\bsw\msg\ringbuffer_cfg.h" 1
 212 0016 62B6     		CPSIE   i
 213              	@ 0 "" 2
 214              		.thumb
 215              		.syntax unified
 216              	.LBE25:
 217              	.LBE24:
 201:source\bsw\msg/ringbuffer.c ****     }
 202:source\bsw\msg/ringbuffer.c ****     
 203:source\bsw\msg/ringbuffer.c ****     RB_leaveCriticalRegion();
 204:source\bsw\msg/ringbuffer.c ****     
 205:source\bsw\msg/ringbuffer.c ****     return ret;
 206:source\bsw\msg/ringbuffer.c **** }
 218              		.loc 1 206 0
 219 0018 7047     		bx	lr
 220              		.cfi_endproc
 221              	.LFE117:
 222              		.size	RB_getFillLevel, .-RB_getFillLevel
 223 001a 00BF     		.section	.text.RB_put,"ax",%progbits
ARM GAS  C:\Users\agraw\AppData\Local\Temp\cc0JNSxg.s 			page 10


 224              		.align	2
 225              		.global	RB_put
 226              		.thumb
 227              		.thumb_func
 228              		.type	RB_put, %function
 229              	RB_put:
 230              	.LFB113:
  92:source\bsw\msg/ringbuffer.c ****     
 231              		.loc 1 92 0
 232              		.cfi_startproc
 233              		@ args = 0, pretend = 0, frame = 8
 234              		@ frame_needed = 0, uses_anonymous_args = 0
 235              	.LVL16:
 236 0000 30B5     		push	{r4, r5, lr}
 237              		.cfi_def_cfa_offset 12
 238              		.cfi_offset 4, -12
 239              		.cfi_offset 5, -8
 240              		.cfi_offset 14, -4
 241 0002 83B0     		sub	sp, sp, #12
 242              		.cfi_def_cfa_offset 24
 243 0004 0446     		mov	r4, r0
 244 0006 0D46     		mov	r5, r1
 245              	.LVL17:
 246              	.LBB26:
 247              	.LBB27:
  63:source\bsw\msg/ringbuffer_cfg.h **** }
 248              		.loc 2 63 0
 249              		.syntax unified
 250              	@ 63 "source\bsw\msg\ringbuffer_cfg.h" 1
 251 0008 72B6     		CPSID   i
 252              	@ 0 "" 2
 253              		.thumb
 254              		.syntax unified
 255              	.LBE27:
 256              	.LBE26:
  98:source\bsw\msg/ringbuffer.c ****     if ( (RC_SUCCESS == RB_getFillLevel(me, &fillLevel)) && (fillLevel < me->m_size) )
 257              		.loc 1 98 0
 258 000a 02A9     		add	r1, sp, #8
 259              	.LVL18:
 260 000c 0023     		movs	r3, #0
 261 000e 21F8023D 		strh	r3, [r1, #-2]!	@ movhi
  99:source\bsw\msg/ringbuffer.c ****     {
 262              		.loc 1 99 0
 263 0012 FFF7FEFF 		bl	RB_getFillLevel
 264              	.LVL19:
 265 0016 A8B9     		cbnz	r0, .L16
  99:source\bsw\msg/ringbuffer.c ****     {
 266              		.loc 1 99 0 is_stmt 0 discriminator 1
 267 0018 2288     		ldrh	r2, [r4]
 268 001a BDF80630 		ldrh	r3, [sp, #6]
 269 001e 9A42     		cmp	r2, r3
 270 0020 13D9     		bls	.L17
 101:source\bsw\msg/ringbuffer.c ****         me->m_writeIndex %= me->m_size;
 271              		.loc 1 101 0 is_stmt 1
 272 0022 2269     		ldr	r2, [r4, #16]
 273 0024 A388     		ldrh	r3, [r4, #4]
 274 0026 591C     		adds	r1, r3, #1
ARM GAS  C:\Users\agraw\AppData\Local\Temp\cc0JNSxg.s 			page 11


 275 0028 A180     		strh	r1, [r4, #4]	@ movhi
 276 002a 2978     		ldrb	r1, [r5]	@ zero_extendqisi2
 277 002c D154     		strb	r1, [r2, r3]
 102:source\bsw\msg/ringbuffer.c ****         me->m_countPut++;
 278              		.loc 1 102 0
 279 002e 2388     		ldrh	r3, [r4]
 280 0030 A188     		ldrh	r1, [r4, #4]
 281 0032 B1FBF3F2 		udiv	r2, r1, r3
 282 0036 03FB1213 		mls	r3, r3, r2, r1
 283 003a A380     		strh	r3, [r4, #4]	@ movhi
 103:source\bsw\msg/ringbuffer.c ****     }
 284              		.loc 1 103 0
 285 003c A368     		ldr	r3, [r4, #8]
 286 003e 0133     		adds	r3, r3, #1
 287 0040 A360     		str	r3, [r4, #8]
 288 0042 04E0     		b	.L15
 289              	.L16:
 107:source\bsw\msg/ringbuffer.c ****     }
 290              		.loc 1 107 0
 291 0044 6FF00700 		mvn	r0, #7
 292 0048 01E0     		b	.L15
 293              	.L17:
 294 004a 6FF00700 		mvn	r0, #7
 295              	.L15:
 296              	.LVL20:
 297              	.LBB28:
 298              	.LBB29:
 299              		.loc 2 71 0
 300              		.syntax unified
 301              	@ 71 "source\bsw\msg\ringbuffer_cfg.h" 1
 302 004e 62B6     		CPSIE   i
 303              	@ 0 "" 2
 304              		.thumb
 305              		.syntax unified
 306              	.LBE29:
 307              	.LBE28:
 113:source\bsw\msg/ringbuffer.c **** 
 308              		.loc 1 113 0
 309 0050 03B0     		add	sp, sp, #12
 310              		.cfi_def_cfa_offset 12
 311              		@ sp needed
 312 0052 30BD     		pop	{r4, r5, pc}
 313              		.cfi_endproc
 314              	.LFE113:
 315              		.size	RB_put, .-RB_put
 316              		.section	.text.RB_get,"ax",%progbits
 317              		.align	2
 318              		.global	RB_get
 319              		.thumb
 320              		.thumb_func
 321              		.type	RB_get, %function
 322              	RB_get:
 323              	.LFB114:
 122:source\bsw\msg/ringbuffer.c ****     RC_t ret = RC_SUCCESS;
 324              		.loc 1 122 0
 325              		.cfi_startproc
 326              		@ args = 0, pretend = 0, frame = 8
ARM GAS  C:\Users\agraw\AppData\Local\Temp\cc0JNSxg.s 			page 12


 327              		@ frame_needed = 0, uses_anonymous_args = 0
 328              	.LVL21:
 329 0000 30B5     		push	{r4, r5, lr}
 330              		.cfi_def_cfa_offset 12
 331              		.cfi_offset 4, -12
 332              		.cfi_offset 5, -8
 333              		.cfi_offset 14, -4
 334 0002 83B0     		sub	sp, sp, #12
 335              		.cfi_def_cfa_offset 24
 336 0004 0446     		mov	r4, r0
 337 0006 0D46     		mov	r5, r1
 338              	.LVL22:
 339              	.LBB30:
 340              	.LBB31:
  63:source\bsw\msg/ringbuffer_cfg.h **** }
 341              		.loc 2 63 0
 342              		.syntax unified
 343              	@ 63 "source\bsw\msg\ringbuffer_cfg.h" 1
 344 0008 72B6     		CPSID   i
 345              	@ 0 "" 2
 346              		.thumb
 347              		.syntax unified
 348              	.LBE31:
 349              	.LBE30:
 127:source\bsw\msg/ringbuffer.c ****     if ( (RC_SUCCESS == RB_getFillLevel(me, &fillLevel)) && (fillLevel > 0) )
 350              		.loc 1 127 0
 351 000a 02A9     		add	r1, sp, #8
 352              	.LVL23:
 353 000c 0023     		movs	r3, #0
 354 000e 21F8023D 		strh	r3, [r1, #-2]!	@ movhi
 128:source\bsw\msg/ringbuffer.c ****     {
 355              		.loc 1 128 0
 356 0012 FFF7FEFF 		bl	RB_getFillLevel
 357              	.LVL24:
 358 0016 98B9     		cbnz	r0, .L21
 128:source\bsw\msg/ringbuffer.c ****     {
 359              		.loc 1 128 0 is_stmt 0 discriminator 1
 360 0018 BDF80630 		ldrh	r3, [sp, #6]
 361 001c 9BB1     		cbz	r3, .L22
 130:source\bsw\msg/ringbuffer.c ****         me->m_readIndex %= me->m_size;
 362              		.loc 1 130 0 is_stmt 1
 363 001e 2269     		ldr	r2, [r4, #16]
 364 0020 6388     		ldrh	r3, [r4, #2]
 365 0022 591C     		adds	r1, r3, #1
 366 0024 6180     		strh	r1, [r4, #2]	@ movhi
 367 0026 D35C     		ldrb	r3, [r2, r3]	@ zero_extendqisi2
 368 0028 2B70     		strb	r3, [r5]
 131:source\bsw\msg/ringbuffer.c ****         me->m_countGet++;
 369              		.loc 1 131 0
 370 002a 2388     		ldrh	r3, [r4]
 371 002c 6188     		ldrh	r1, [r4, #2]
 372 002e B1FBF3F2 		udiv	r2, r1, r3
 373 0032 03FB1213 		mls	r3, r3, r2, r1
 374 0036 6380     		strh	r3, [r4, #2]	@ movhi
 132:source\bsw\msg/ringbuffer.c ****         
 375              		.loc 1 132 0
 376 0038 E368     		ldr	r3, [r4, #12]
ARM GAS  C:\Users\agraw\AppData\Local\Temp\cc0JNSxg.s 			page 13


 377 003a 0133     		adds	r3, r3, #1
 378 003c E360     		str	r3, [r4, #12]
 379 003e 04E0     		b	.L20
 380              	.L21:
 137:source\bsw\msg/ringbuffer.c ****     }
 381              		.loc 1 137 0
 382 0040 6FF00800 		mvn	r0, #8
 383 0044 01E0     		b	.L20
 384              	.L22:
 385 0046 6FF00800 		mvn	r0, #8
 386              	.L20:
 387              	.LVL25:
 388              	.LBB32:
 389              	.LBB33:
 390              		.loc 2 71 0
 391              		.syntax unified
 392              	@ 71 "source\bsw\msg\ringbuffer_cfg.h" 1
 393 004a 62B6     		CPSIE   i
 394              	@ 0 "" 2
 395              		.thumb
 396              		.syntax unified
 397              	.LBE33:
 398              	.LBE32:
 144:source\bsw\msg/ringbuffer.c **** 
 399              		.loc 1 144 0
 400 004c 03B0     		add	sp, sp, #12
 401              		.cfi_def_cfa_offset 12
 402              		@ sp needed
 403 004e 30BD     		pop	{r4, r5, pc}
 404              		.cfi_endproc
 405              	.LFE114:
 406              		.size	RB_get, .-RB_get
 407              		.text
 408              	.Letext0:
 409              		.file 3 "c:\\program files (x86)\\cypress\\psoc creator\\4.4\\psoc creator\\import\\gnu\\arm\\5.4.
 410              		.file 4 ".\\source\\bsw/global.h"
 411              		.file 5 "c:\\program files (x86)\\cypress\\psoc creator\\4.4\\psoc creator\\import\\gnu\\arm\\5.4.
 412              		.file 6 "Generated_Source\\PSoC5/ErikaOS_1_common_ee_types.inc"
 413              		.file 7 "Generated_Source\\PSoC5/ErikaOS_1_cortex_mx_ee_cpu.inc"
 414              		.file 8 "source\\bsw\\msg\\ringbuffer.h"
 415              		.file 9 "Generated_Source\\PSoC5/ErikaOS_1_ee_oo_intfunc.inc"
 416              		.file 10 "Generated_Source\\PSoC5/ErikaOS_1_cortex_mx_ee_context.inc"
 417              		.file 11 "Generated_Source\\PSoC5/ErikaOS_1_common_ee_primitives.inc"
 418              		.file 12 "Generated_Source\\PSoC5/core_cm3.h"
 419              		.file 13 "c:\\program files (x86)\\cypress\\psoc creator\\4.4\\psoc creator\\import\\gnu\\arm\\5.4