ARM GAS  C:\Users\agraw\AppData\Local\Temp\cc6vriJI.s 			page 1


   1              		.syntax unified
   2              		.cpu cortex-m3
   3              		.fpu softvfp
   4              		.eabi_attribute 20, 1
   5              		.eabi_attribute 21, 1
   6              		.eabi_attribute 23, 3
   7              		.eabi_attribute 24, 1
   8              		.eabi_attribute 25, 1
   9              		.eabi_attribute 26, 1
  10              		.eabi_attribute 30, 1
  11              		.eabi_attribute 34, 1
  12              		.eabi_attribute 18, 4
  13              		.thumb
  14              		.syntax unified
  15              		.file	"reactiongame.c"
  16              		.text
  17              	.Ltext0:
  18              		.cfi_sections	.debug_frame
  19              		.section	.text.RG_Print,"ax",%progbits
  20              		.align	2
  21              		.global	RG_Print
  22              		.thumb
  23              		.thumb_func
  24              		.type	RG_Print, %function
  25              	RG_Print:
  26              	.LFB112:
  27              		.file 1 "source\\bsw\\reactiongame.c"
   1:source\bsw/reactiongame.c **** /**
   2:source\bsw/reactiongame.c **** * \file <filename>
   3:source\bsw/reactiongame.c **** * \author <author-name>
   4:source\bsw/reactiongame.c **** * \date <date>
   5:source\bsw/reactiongame.c **** *
   6:source\bsw/reactiongame.c **** * \brief <Symbolic File name>
   7:source\bsw/reactiongame.c **** *
   8:source\bsw/reactiongame.c **** * \copyright Copyright ©2016
   9:source\bsw/reactiongame.c **** * Department of electrical engineering and information technology, Hochschule Darmstadt - Universit
  10:source\bsw/reactiongame.c **** * Permission to use, copy, modify, and distribute this software and its documentation for education
  11:source\bsw/reactiongame.c **** * (unless permitted by h_da) and official h_da projects, is hereby granted for enrolled students of
  12:source\bsw/reactiongame.c **** * this paragraph and the following paragraph appear in all copies, modifications, and distributions
  13:source\bsw/reactiongame.c **** * Contact Prof.Dr.-Ing. Peter Fromm, peter.fromm@h-da.de, Birkenweg 8 64295 Darmstadt - GERMANY for
  14:source\bsw/reactiongame.c **** *
  15:source\bsw/reactiongame.c **** * \warning This software is a PROTOTYPE version and is not designed or intended for use in producti
  16:source\bsw/reactiongame.c **** * The user represents and warrants that it will NOT use or redistribute the Software for such purpo
  17:source\bsw/reactiongame.c **** * This prototype is for research purposes only. This software is provided "AS IS," without a warran
  18:source\bsw/reactiongame.c **** */
  19:source\bsw/reactiongame.c **** 
  20:source\bsw/reactiongame.c **** /*****************************************************************************/
  21:source\bsw/reactiongame.c **** /* Include files                                                             */
  22:source\bsw/reactiongame.c **** /*****************************************************************************/
  23:source\bsw/reactiongame.c **** 
  24:source\bsw/reactiongame.c **** #include "reactiongame.h"
  25:source\bsw/reactiongame.c **** 
  26:source\bsw/reactiongame.c **** #include "stdio.h"
  27:source\bsw/reactiongame.c **** 
  28:source\bsw/reactiongame.c **** #include "led.h"
  29:source\bsw/reactiongame.c **** #include "seven.h"
  30:source\bsw/reactiongame.c **** 
ARM GAS  C:\Users\agraw\AppData\Local\Temp\cc6vriJI.s 			page 2


  31:source\bsw/reactiongame.c **** 
  32:source\bsw/reactiongame.c **** /*****************************************************************************/
  33:source\bsw/reactiongame.c **** /* Local pre-processor symbols/macros ('#define')                            */
  34:source\bsw/reactiongame.c **** /*****************************************************************************/
  35:source\bsw/reactiongame.c **** 
  36:source\bsw/reactiongame.c **** /*****************************************************************************/
  37:source\bsw/reactiongame.c **** /* Global variable definitions (declared in header file with 'extern')       */
  38:source\bsw/reactiongame.c **** /*****************************************************************************/
  39:source\bsw/reactiongame.c **** 
  40:source\bsw/reactiongame.c **** /*****************************************************************************/
  41:source\bsw/reactiongame.c **** /* Local type definitions ('typedef')                                        */
  42:source\bsw/reactiongame.c **** /*****************************************************************************/
  43:source\bsw/reactiongame.c **** 
  44:source\bsw/reactiongame.c **** /*****************************************************************************/
  45:source\bsw/reactiongame.c **** /* Local variable definitions ('static')                                     */
  46:source\bsw/reactiongame.c **** /*****************************************************************************/
  47:source\bsw/reactiongame.c **** 
  48:source\bsw/reactiongame.c **** 
  49:source\bsw/reactiongame.c **** static  uint8_t roundCounter = 1;
  50:source\bsw/reactiongame.c **** static uint8_t correctPress = 0;
  51:source\bsw/reactiongame.c **** static uint8_t expectedButton = 0;
  52:source\bsw/reactiongame.c **** 
  53:source\bsw/reactiongame.c **** static volatile uint32_t sysTimer = 0;
  54:source\bsw/reactiongame.c **** static uint32_t startTimer = 0;
  55:source\bsw/reactiongame.c **** static uint32_t totalReactionTime = 0;
  56:source\bsw/reactiongame.c **** static uint32_t averageReactionTime = 0;
  57:source\bsw/reactiongame.c **** TickType currentTick;
  58:source\bsw/reactiongame.c **** 
  59:source\bsw/reactiongame.c **** static char tempBuf[64];
  60:source\bsw/reactiongame.c **** static RG_State_t state = S_RG_START;
  61:source\bsw/reactiongame.c **** 
  62:source\bsw/reactiongame.c **** 
  63:source\bsw/reactiongame.c **** /*****************************************************************************/
  64:source\bsw/reactiongame.c **** /* Local function prototypes ('static')                                      */
  65:source\bsw/reactiongame.c **** /*****************************************************************************/
  66:source\bsw/reactiongame.c **** 
  67:source\bsw/reactiongame.c **** 
  68:source\bsw/reactiongame.c **** /*****************************************************************************/
  69:source\bsw/reactiongame.c **** /* Function implementation - global ('extern') and local ('static')          */
  70:source\bsw/reactiongame.c **** /*****************************************************************************/
  71:source\bsw/reactiongame.c **** 
  72:source\bsw/reactiongame.c **** /**
  73:source\bsw/reactiongame.c ****  * Initialises the pheripherals
  74:source\bsw/reactiongame.c ****  * @return RC_OK if function was executed as exepected, other error code in case of error
  75:source\bsw/reactiongame.c ****  */
  76:source\bsw/reactiongame.c **** RC_t RG_Init(){
  77:source\bsw/reactiongame.c ****     
  78:source\bsw/reactiongame.c ****     RGB_PWM_blue_Start();
  79:source\bsw/reactiongame.c ****     RGB_PWM_green_Start();
  80:source\bsw/reactiongame.c ****     RGB_PWM_red_Start();
  81:source\bsw/reactiongame.c ****     PWM_yellow_Start();
  82:source\bsw/reactiongame.c ****     PWM_green_Start();
  83:source\bsw/reactiongame.c ****     PWM_red_Start();
  84:source\bsw/reactiongame.c ****     SEVEN_Init();
  85:source\bsw/reactiongame.c ****     UART_LOG_Start();
  86:source\bsw/reactiongame.c **** 
  87:source\bsw/reactiongame.c ****     
ARM GAS  C:\Users\agraw\AppData\Local\Temp\cc6vriJI.s 			page 3


  88:source\bsw/reactiongame.c ****     LED_RGB_Set(0,0,0);
  89:source\bsw/reactiongame.c ****     LED_Red_Set(0);
  90:source\bsw/reactiongame.c ****     LED_Yellow_Set(0);
  91:source\bsw/reactiongame.c ****     LED_Green_Set(0);
  92:source\bsw/reactiongame.c ****     
  93:source\bsw/reactiongame.c ****     char Buf[64];
  94:source\bsw/reactiongame.c ****     sprintf(Buf, "Welcome to Reaction Game\n");
  95:source\bsw/reactiongame.c ****     RG_Print(Buf);
  96:source\bsw/reactiongame.c ****     
  97:source\bsw/reactiongame.c ****     
  98:source\bsw/reactiongame.c ****     return RC_SUCCESS;
  99:source\bsw/reactiongame.c **** }
 100:source\bsw/reactiongame.c **** 
 101:source\bsw/reactiongame.c **** void RG_Print(char const * const log){
  28              		.loc 1 101 0
  29              		.cfi_startproc
  30              		@ args = 0, pretend = 0, frame = 0
  31              		@ frame_needed = 0, uses_anonymous_args = 0
  32              	.LVL0:
  33 0000 10B5     		push	{r4, lr}
  34              		.cfi_def_cfa_offset 8
  35              		.cfi_offset 4, -8
  36              		.cfi_offset 14, -4
  37 0002 0446     		mov	r4, r0
 102:source\bsw/reactiongame.c ****     
 103:source\bsw/reactiongame.c ****     GetResource(res_printf);
  38              		.loc 1 103 0
  39 0004 0020     		movs	r0, #0
  40              	.LVL1:
  41 0006 FFF7FEFF 		bl	EE_oo_GetResource
  42              	.LVL2:
 104:source\bsw/reactiongame.c ****     UART_LOG_PutStringConst(log);
  43              		.loc 1 104 0
  44 000a 2046     		mov	r0, r4
  45 000c FFF7FEFF 		bl	UART_LOG_PutString
  46              	.LVL3:
 105:source\bsw/reactiongame.c ****     ReleaseResource(res_printf);
  47              		.loc 1 105 0
  48 0010 0020     		movs	r0, #0
  49 0012 FFF7FEFF 		bl	EE_oo_ReleaseResource
  50              	.LVL4:
  51 0016 10BD     		pop	{r4, pc}
  52              		.cfi_endproc
  53              	.LFE112:
  54              		.size	RG_Print, .-RG_Print
  55              		.section	.text.RG_Init,"ax",%progbits
  56              		.align	2
  57              		.global	RG_Init
  58              		.thumb
  59              		.thumb_func
  60              		.type	RG_Init, %function
  61              	RG_Init:
  62              	.LFB111:
  76:source\bsw/reactiongame.c ****     
  63              		.loc 1 76 0
  64              		.cfi_startproc
  65              		@ args = 0, pretend = 0, frame = 64
ARM GAS  C:\Users\agraw\AppData\Local\Temp\cc6vriJI.s 			page 4


  66              		@ frame_needed = 0, uses_anonymous_args = 0
  67 0000 30B5     		push	{r4, r5, lr}
  68              		.cfi_def_cfa_offset 12
  69              		.cfi_offset 4, -12
  70              		.cfi_offset 5, -8
  71              		.cfi_offset 14, -4
  72 0002 91B0     		sub	sp, sp, #68
  73              		.cfi_def_cfa_offset 80
  78:source\bsw/reactiongame.c ****     RGB_PWM_green_Start();
  74              		.loc 1 78 0
  75 0004 FFF7FEFF 		bl	RGB_PWM_blue_Start
  76              	.LVL5:
  79:source\bsw/reactiongame.c ****     RGB_PWM_red_Start();
  77              		.loc 1 79 0
  78 0008 FFF7FEFF 		bl	RGB_PWM_green_Start
  79              	.LVL6:
  80:source\bsw/reactiongame.c ****     PWM_yellow_Start();
  80              		.loc 1 80 0
  81 000c FFF7FEFF 		bl	RGB_PWM_red_Start
  82              	.LVL7:
  81:source\bsw/reactiongame.c ****     PWM_green_Start();
  83              		.loc 1 81 0
  84 0010 FFF7FEFF 		bl	PWM_yellow_Start
  85              	.LVL8:
  82:source\bsw/reactiongame.c ****     PWM_red_Start();
  86              		.loc 1 82 0
  87 0014 FFF7FEFF 		bl	PWM_green_Start
  88              	.LVL9:
  83:source\bsw/reactiongame.c ****     SEVEN_Init();
  89              		.loc 1 83 0
  90 0018 FFF7FEFF 		bl	PWM_red_Start
  91              	.LVL10:
  84:source\bsw/reactiongame.c ****     UART_LOG_Start();
  92              		.loc 1 84 0
  93 001c FFF7FEFF 		bl	SEVEN_Init
  94              	.LVL11:
  85:source\bsw/reactiongame.c **** 
  95              		.loc 1 85 0
  96 0020 FFF7FEFF 		bl	UART_LOG_Start
  97              	.LVL12:
  88:source\bsw/reactiongame.c ****     LED_Red_Set(0);
  98              		.loc 1 88 0
  99 0024 0022     		movs	r2, #0
 100 0026 1146     		mov	r1, r2
 101 0028 1046     		mov	r0, r2
 102 002a FFF7FEFF 		bl	LED_RGB_Set
 103              	.LVL13:
  89:source\bsw/reactiongame.c ****     LED_Yellow_Set(0);
 104              		.loc 1 89 0
 105 002e 0020     		movs	r0, #0
 106 0030 FFF7FEFF 		bl	LED_Red_Set
 107              	.LVL14:
  90:source\bsw/reactiongame.c ****     LED_Green_Set(0);
 108              		.loc 1 90 0
 109 0034 0020     		movs	r0, #0
 110 0036 FFF7FEFF 		bl	LED_Yellow_Set
 111              	.LVL15:
ARM GAS  C:\Users\agraw\AppData\Local\Temp\cc6vriJI.s 			page 5


  91:source\bsw/reactiongame.c ****     
 112              		.loc 1 91 0
 113 003a 0020     		movs	r0, #0
 114 003c FFF7FEFF 		bl	LED_Green_Set
 115              	.LVL16:
  94:source\bsw/reactiongame.c ****     RG_Print(Buf);
 116              		.loc 1 94 0
 117 0040 6C46     		mov	r4, sp
 118 0042 064D     		ldr	r5, .L5
 119 0044 0FCD     		ldmia	r5!, {r0, r1, r2, r3}
 120 0046 0FC4     		stmia	r4!, {r0, r1, r2, r3}
 121 0048 95E80700 		ldmia	r5, {r0, r1, r2}
 122 004c 03C4     		stmia	r4!, {r0, r1}
 123 004e 2280     		strh	r2, [r4]	@ movhi
  95:source\bsw/reactiongame.c ****     
 124              		.loc 1 95 0
 125 0050 6846     		mov	r0, sp
 126 0052 FFF7FEFF 		bl	RG_Print
 127              	.LVL17:
  99:source\bsw/reactiongame.c **** 
 128              		.loc 1 99 0
 129 0056 0020     		movs	r0, #0
 130 0058 11B0     		add	sp, sp, #68
 131              		.cfi_def_cfa_offset 12
 132              		@ sp needed
 133 005a 30BD     		pop	{r4, r5, pc}
 134              	.L6:
 135              		.align	2
 136              	.L5:
 137 005c 00000000 		.word	.LC0
 138              		.cfi_endproc
 139              	.LFE111:
 140              		.size	RG_Init, .-RG_Init
 141              		.section	.text.RG_ShowWelcome,"ax",%progbits
 142              		.align	2
 143              		.global	RG_ShowWelcome
 144              		.thumb
 145              		.thumb_func
 146              		.type	RG_ShowWelcome, %function
 147              	RG_ShowWelcome:
 148              	.LFB113:
 106:source\bsw/reactiongame.c ****    
 107:source\bsw/reactiongame.c **** }
 108:source\bsw/reactiongame.c **** 
 109:source\bsw/reactiongame.c **** void RG_ShowWelcome(void){
 149              		.loc 1 109 0
 150              		.cfi_startproc
 151              		@ args = 0, pretend = 0, frame = 128
 152              		@ frame_needed = 0, uses_anonymous_args = 0
 153 0000 00B5     		push	{lr}
 154              		.cfi_def_cfa_offset 4
 155              		.cfi_offset 14, -4
 156 0002 A1B0     		sub	sp, sp, #132
 157              		.cfi_def_cfa_offset 136
 110:source\bsw/reactiongame.c ****     
 111:source\bsw/reactiongame.c ****     SEVEN_Init();
 158              		.loc 1 111 0
ARM GAS  C:\Users\agraw\AppData\Local\Temp\cc6vriJI.s 			page 6


 159 0004 FFF7FEFF 		bl	SEVEN_Init
 160              	.LVL18:
 112:source\bsw/reactiongame.c ****     char Buf[128];
 113:source\bsw/reactiongame.c ****     sprintf(Buf, "Round %u Started: \nPress one of the two buttons to start.. \n", 
 161              		.loc 1 113 0
 162 0008 054B     		ldr	r3, .L9
 163 000a 1A78     		ldrb	r2, [r3]	@ zero_extendqisi2
 164 000c 0549     		ldr	r1, .L9+4
 165 000e 6846     		mov	r0, sp
 166 0010 FFF7FEFF 		bl	sprintf
 167              	.LVL19:
 114:source\bsw/reactiongame.c ****         (unsigned char)roundCounter);
 115:source\bsw/reactiongame.c ****     RG_Print(Buf);
 168              		.loc 1 115 0
 169 0014 6846     		mov	r0, sp
 170 0016 FFF7FEFF 		bl	RG_Print
 171              	.LVL20:
 116:source\bsw/reactiongame.c ****    
 117:source\bsw/reactiongame.c **** 
 118:source\bsw/reactiongame.c **** }
 172              		.loc 1 118 0
 173 001a 21B0     		add	sp, sp, #132
 174              		.cfi_def_cfa_offset 4
 175              		@ sp needed
 176 001c 5DF804FB 		ldr	pc, [sp], #4
 177              	.L10:
 178              		.align	2
 179              	.L9:
 180 0020 00000000 		.word	.LANCHOR0
 181 0024 1C000000 		.word	.LC1
 182              		.cfi_endproc
 183              	.LFE113:
 184              		.size	RG_ShowWelcome, .-RG_ShowWelcome
 185              		.section	.text.CurrentSysTick,"ax",%progbits
 186              		.align	2
 187              		.global	CurrentSysTick
 188              		.thumb
 189              		.thumb_func
 190              		.type	CurrentSysTick, %function
 191              	CurrentSysTick:
 192              	.LFB114:
 119:source\bsw/reactiongame.c **** 
 120:source\bsw/reactiongame.c **** 
 121:source\bsw/reactiongame.c **** int CurrentSysTick(){
 193              		.loc 1 121 0
 194              		.cfi_startproc
 195              		@ args = 0, pretend = 0, frame = 0
 196              		@ frame_needed = 0, uses_anonymous_args = 0
 197 0000 10B5     		push	{r4, lr}
 198              		.cfi_def_cfa_offset 8
 199              		.cfi_offset 4, -8
 200              		.cfi_offset 14, -4
 122:source\bsw/reactiongame.c ****     GetCounterValue(Counter_Systick, &currentTick);
 201              		.loc 1 122 0
 202 0002 034C     		ldr	r4, .L13
 203 0004 2146     		mov	r1, r4
 204 0006 0020     		movs	r0, #0
ARM GAS  C:\Users\agraw\AppData\Local\Temp\cc6vriJI.s 			page 7


 205 0008 FFF7FEFF 		bl	EE_oo_GetCounterValue
 206              	.LVL21:
 123:source\bsw/reactiongame.c ****     return currentTick;
 124:source\bsw/reactiongame.c **** }               
 207              		.loc 1 124 0
 208 000c 2068     		ldr	r0, [r4]
 209 000e 10BD     		pop	{r4, pc}
 210              	.L14:
 211              		.align	2
 212              	.L13:
 213 0010 00000000 		.word	currentTick
 214              		.cfi_endproc
 215              	.LFE114:
 216              		.size	CurrentSysTick, .-CurrentSysTick
 217              		.section	.text.RG_ProcessEvent,"ax",%progbits
 218              		.align	2
 219              		.global	RG_ProcessEvent
 220              		.thumb
 221              		.thumb_func
 222              		.type	RG_ProcessEvent, %function
 223              	RG_ProcessEvent:
 224              	.LFB115:
 125:source\bsw/reactiongame.c **** 
 126:source\bsw/reactiongame.c **** void RG_ProcessEvent(EventMaskType ev){
 225              		.loc 1 126 0
 226              		.cfi_startproc
 227              		@ args = 0, pretend = 0, frame = 128
 228              		@ frame_needed = 0, uses_anonymous_args = 0
 229              	.LVL22:
 230 0000 30B5     		push	{r4, r5, lr}
 231              		.cfi_def_cfa_offset 12
 232              		.cfi_offset 4, -12
 233              		.cfi_offset 5, -8
 234              		.cfi_offset 14, -4
 235 0002 A3B0     		sub	sp, sp, #140
 236              		.cfi_def_cfa_offset 152
 127:source\bsw/reactiongame.c **** 
 128:source\bsw/reactiongame.c ****     switch(state){
 237              		.loc 1 128 0
 238 0004 544B     		ldr	r3, .L27
 239 0006 1B78     		ldrb	r3, [r3]	@ zero_extendqisi2
 240 0008 032B     		cmp	r3, #3
 241 000a 00F2A280 		bhi	.L15
 242 000e DFE803F0 		tbb	[pc, r3]
 243              	.L18:
 244 0012 02       		.byte	(.L17-.L18)/2
 245 0013 13       		.byte	(.L19-.L18)/2
 246 0014 7C       		.byte	(.L20-.L18)/2
 247 0015 90       		.byte	(.L21-.L18)/2
 248              		.p2align 1
 249              	.L17:
 129:source\bsw/reactiongame.c ****             
 130:source\bsw/reactiongame.c ****         case S_RG_START:
 131:source\bsw/reactiongame.c ****             if(ev & (ev_leftButton | ev_rightButton)){
 250              		.loc 1 131 0
 251 0016 10F0030F 		tst	r0, #3
 252 001a 00F09A80 		beq	.L15
ARM GAS  C:\Users\agraw\AppData\Local\Temp\cc6vriJI.s 			page 8


 132:source\bsw/reactiongame.c ****                 
 133:source\bsw/reactiongame.c ****                 //uint32_t randomTime = 2000;
 134:source\bsw/reactiongame.c ****                 //CancelAlarm(Alarm_startWaitOver);
 135:source\bsw/reactiongame.c ****                 //SetRelAlarm(Alarm_startWaitOver, randomTime, 0);
 136:source\bsw/reactiongame.c ****                 //CyDelay(randomTime);
 137:source\bsw/reactiongame.c ****                 
 138:source\bsw/reactiongame.c ****                 expectedButton = 1;
 253              		.loc 1 138 0
 254 001e 4E4D     		ldr	r5, .L27
 255 0020 0124     		movs	r4, #1
 256 0022 6C70     		strb	r4, [r5, #1]
 139:source\bsw/reactiongame.c ****                 SEVEN_Set(0, expectedButton);
 257              		.loc 1 139 0
 258 0024 2146     		mov	r1, r4
 259 0026 0020     		movs	r0, #0
 260              	.LVL23:
 261 0028 FFF7FEFF 		bl	SEVEN_Set
 262              	.LVL24:
 140:source\bsw/reactiongame.c ****                 SEVEN_Set(1, expectedButton);
 263              		.loc 1 140 0
 264 002c 6978     		ldrb	r1, [r5, #1]	@ zero_extendqisi2
 265 002e 2046     		mov	r0, r4
 266 0030 FFF7FEFF 		bl	SEVEN_Set
 267              	.LVL25:
 141:source\bsw/reactiongame.c ****                 
 142:source\bsw/reactiongame.c ****                 state = S_RG_WAITPLAYER;
 268              		.loc 1 142 0
 269 0034 2C70     		strb	r4, [r5]
 270 0036 8CE0     		b	.L15
 271              	.LVL26:
 272              	.L19:
 143:source\bsw/reactiongame.c ****                 
 144:source\bsw/reactiongame.c ****                 
 145:source\bsw/reactiongame.c ****             }
 146:source\bsw/reactiongame.c ****         
 147:source\bsw/reactiongame.c ****             break;
 148:source\bsw/reactiongame.c ****             
 149:source\bsw/reactiongame.c ****         
 150:source\bsw/reactiongame.c ****         case S_RG_WAITPLAYER:
 151:source\bsw/reactiongame.c ****             if(ev & ev_rightButton){
 273              		.loc 1 151 0
 274 0038 10F0020F 		tst	r0, #2
 275 003c 2AD0     		beq	.L22
 152:source\bsw/reactiongame.c ****                 if(expectedButton == 1){
 276              		.loc 1 152 0
 277 003e 464B     		ldr	r3, .L27
 278 0040 5B78     		ldrb	r3, [r3, #1]	@ zero_extendqisi2
 279 0042 012B     		cmp	r3, #1
 280 0044 1CD1     		bne	.L23
 281              	.LBB2:
 153:source\bsw/reactiongame.c ****                     uint32_t currentReactionTime =  CurrentSysTick() - startTimer;
 282              		.loc 1 153 0
 283 0046 FFF7FEFF 		bl	CurrentSysTick
 284              	.LVL27:
 285 004a 434C     		ldr	r4, .L27
 286 004c 6268     		ldr	r2, [r4, #4]
 287 004e 821A     		subs	r2, r0, r2
ARM GAS  C:\Users\agraw\AppData\Local\Temp\cc6vriJI.s 			page 9


 288              	.LVL28:
 154:source\bsw/reactiongame.c ****                     totalReactionTime += currentReactionTime;
 289              		.loc 1 154 0
 290 0050 A368     		ldr	r3, [r4, #8]
 291 0052 1344     		add	r3, r3, r2
 292 0054 A360     		str	r3, [r4, #8]
 155:source\bsw/reactiongame.c ****                     
 156:source\bsw/reactiongame.c ****                     sprintf(tempBuf, "Great - Correct Button Pressed \nReaction Time in ms: %u", 
 293              		.loc 1 156 0
 294 0056 04F10C05 		add	r5, r4, #12
 295 005a 4049     		ldr	r1, .L27+4
 296 005c 2846     		mov	r0, r5
 297 005e FFF7FEFF 		bl	sprintf
 298              	.LVL29:
 157:source\bsw/reactiongame.c ****                         (unsigned int)currentReactionTime);
 158:source\bsw/reactiongame.c ****                     RG_Print(tempBuf);
 299              		.loc 1 158 0
 300 0062 2846     		mov	r0, r5
 301 0064 FFF7FEFF 		bl	RG_Print
 302              	.LVL30:
 159:source\bsw/reactiongame.c ****                     
 160:source\bsw/reactiongame.c ****                     correctPress++;
 303              		.loc 1 160 0
 304 0068 94F84C30 		ldrb	r3, [r4, #76]	@ zero_extendqisi2
 305 006c 0133     		adds	r3, r3, #1
 306 006e 84F84C30 		strb	r3, [r4, #76]
 161:source\bsw/reactiongame.c ****                     
 162:source\bsw/reactiongame.c ****                     roundCounter++;
 307              		.loc 1 162 0
 308 0072 3B4A     		ldr	r2, .L27+8
 309 0074 1378     		ldrb	r3, [r2]	@ zero_extendqisi2
 310 0076 0133     		adds	r3, r3, #1
 311 0078 1370     		strb	r3, [r2]
 163:source\bsw/reactiongame.c ****                     RG_ShowWelcome();
 312              		.loc 1 163 0
 313 007a FFF7FEFF 		bl	RG_ShowWelcome
 314              	.LVL31:
 315              	.LBE2:
 316 007e 68E0     		b	.L15
 317              	.LVL32:
 318              	.L23:
 164:source\bsw/reactiongame.c ****                 }
 165:source\bsw/reactiongame.c ****                 else{
 166:source\bsw/reactiongame.c ****                     RG_Print("Incorrect Button Pressed \n");
 319              		.loc 1 166 0
 320 0080 3848     		ldr	r0, .L27+12
 321              	.LVL33:
 322 0082 FFF7FEFF 		bl	RG_Print
 323              	.LVL34:
 167:source\bsw/reactiongame.c ****                     
 168:source\bsw/reactiongame.c ****                     roundCounter++;
 324              		.loc 1 168 0
 325 0086 364A     		ldr	r2, .L27+8
 326 0088 1378     		ldrb	r3, [r2]	@ zero_extendqisi2
 327 008a 0133     		adds	r3, r3, #1
 328 008c 1370     		strb	r3, [r2]
 169:source\bsw/reactiongame.c ****                     RG_ShowWelcome();
ARM GAS  C:\Users\agraw\AppData\Local\Temp\cc6vriJI.s 			page 10


 329              		.loc 1 169 0
 330 008e FFF7FEFF 		bl	RG_ShowWelcome
 331              	.LVL35:
 332 0092 5EE0     		b	.L15
 333              	.LVL36:
 334              	.L22:
 170:source\bsw/reactiongame.c ****                 }
 171:source\bsw/reactiongame.c ****             }
 172:source\bsw/reactiongame.c ****             
 173:source\bsw/reactiongame.c ****             else if(ev & ev_leftButton){
 335              		.loc 1 173 0
 336 0094 10F0010F 		tst	r0, #1
 337 0098 2AD0     		beq	.L24
 174:source\bsw/reactiongame.c ****                 if(expectedButton == 2){
 338              		.loc 1 174 0
 339 009a 2F4B     		ldr	r3, .L27
 340 009c 5B78     		ldrb	r3, [r3, #1]	@ zero_extendqisi2
 341 009e 022B     		cmp	r3, #2
 342 00a0 1CD1     		bne	.L25
 343              	.LBB3:
 175:source\bsw/reactiongame.c ****                     uint32_t currentReactionTime =  CurrentSysTick() - startTimer;
 344              		.loc 1 175 0
 345 00a2 FFF7FEFF 		bl	CurrentSysTick
 346              	.LVL37:
 347 00a6 2C4C     		ldr	r4, .L27
 348 00a8 6268     		ldr	r2, [r4, #4]
 349 00aa 821A     		subs	r2, r0, r2
 350              	.LVL38:
 176:source\bsw/reactiongame.c ****                     totalReactionTime += currentReactionTime;
 351              		.loc 1 176 0
 352 00ac A368     		ldr	r3, [r4, #8]
 353 00ae 1344     		add	r3, r3, r2
 354 00b0 A360     		str	r3, [r4, #8]
 177:source\bsw/reactiongame.c ****                     
 178:source\bsw/reactiongame.c ****                     sprintf(tempBuf, "Great - Correct Button Pressed \nReaction Time in ms: %u", (u
 355              		.loc 1 178 0
 356 00b2 04F10C05 		add	r5, r4, #12
 357 00b6 2949     		ldr	r1, .L27+4
 358 00b8 2846     		mov	r0, r5
 359 00ba FFF7FEFF 		bl	sprintf
 360              	.LVL39:
 179:source\bsw/reactiongame.c ****                     RG_Print(tempBuf);
 361              		.loc 1 179 0
 362 00be 2846     		mov	r0, r5
 363 00c0 FFF7FEFF 		bl	RG_Print
 364              	.LVL40:
 180:source\bsw/reactiongame.c ****                     
 181:source\bsw/reactiongame.c ****                     correctPress++;
 365              		.loc 1 181 0
 366 00c4 94F84C30 		ldrb	r3, [r4, #76]	@ zero_extendqisi2
 367 00c8 0133     		adds	r3, r3, #1
 368 00ca 84F84C30 		strb	r3, [r4, #76]
 182:source\bsw/reactiongame.c ****                     
 183:source\bsw/reactiongame.c ****                     roundCounter++;
 369              		.loc 1 183 0
 370 00ce 244A     		ldr	r2, .L27+8
 371 00d0 1378     		ldrb	r3, [r2]	@ zero_extendqisi2
ARM GAS  C:\Users\agraw\AppData\Local\Temp\cc6vriJI.s 			page 11


 372 00d2 0133     		adds	r3, r3, #1
 373 00d4 1370     		strb	r3, [r2]
 184:source\bsw/reactiongame.c ****                     RG_ShowWelcome();
 374              		.loc 1 184 0
 375 00d6 FFF7FEFF 		bl	RG_ShowWelcome
 376              	.LVL41:
 377              	.LBE3:
 378 00da 3AE0     		b	.L15
 379              	.LVL42:
 380              	.L25:
 185:source\bsw/reactiongame.c ****                 }
 186:source\bsw/reactiongame.c ****                 else{
 187:source\bsw/reactiongame.c ****                     RG_Print("Incorrect Button Pressed \n");
 381              		.loc 1 187 0
 382 00dc 2148     		ldr	r0, .L27+12
 383              	.LVL43:
 384 00de FFF7FEFF 		bl	RG_Print
 385              	.LVL44:
 188:source\bsw/reactiongame.c ****                     roundCounter++;
 386              		.loc 1 188 0
 387 00e2 1F4A     		ldr	r2, .L27+8
 388 00e4 1378     		ldrb	r3, [r2]	@ zero_extendqisi2
 389 00e6 0133     		adds	r3, r3, #1
 390 00e8 1370     		strb	r3, [r2]
 189:source\bsw/reactiongame.c ****                     RG_ShowWelcome();
 391              		.loc 1 189 0
 392 00ea FFF7FEFF 		bl	RG_ShowWelcome
 393              	.LVL45:
 394 00ee 30E0     		b	.L15
 395              	.LVL46:
 396              	.L24:
 190:source\bsw/reactiongame.c ****                     
 191:source\bsw/reactiongame.c ****                 }
 192:source\bsw/reactiongame.c ****             }
 193:source\bsw/reactiongame.c ****                
 194:source\bsw/reactiongame.c ****             else if (ev & ev_slow){
 397              		.loc 1 194 0
 398 00f0 10F0080F 		tst	r0, #8
 399 00f4 2DD0     		beq	.L15
 195:source\bsw/reactiongame.c ****                 RG_Print("Too slow \n");
 400              		.loc 1 195 0
 401 00f6 1C48     		ldr	r0, .L27+16
 402              	.LVL47:
 403 00f8 FFF7FEFF 		bl	RG_Print
 404              	.LVL48:
 196:source\bsw/reactiongame.c ****                 roundCounter++;
 405              		.loc 1 196 0
 406 00fc 184A     		ldr	r2, .L27+8
 407 00fe 1378     		ldrb	r3, [r2]	@ zero_extendqisi2
 408 0100 0133     		adds	r3, r3, #1
 409 0102 1370     		strb	r3, [r2]
 197:source\bsw/reactiongame.c ****                 RG_ShowWelcome();
 410              		.loc 1 197 0
 411 0104 FFF7FEFF 		bl	RG_ShowWelcome
 412              	.LVL49:
 413 0108 23E0     		b	.L15
 414              	.LVL50:
ARM GAS  C:\Users\agraw\AppData\Local\Temp\cc6vriJI.s 			page 12


 415              	.L20:
 198:source\bsw/reactiongame.c ****                 
 199:source\bsw/reactiongame.c ****             }
 200:source\bsw/reactiongame.c ****                                
 201:source\bsw/reactiongame.c ****             
 202:source\bsw/reactiongame.c ****             break;
 203:source\bsw/reactiongame.c ****         
 204:source\bsw/reactiongame.c ****         case S_RG_SCORE:
 205:source\bsw/reactiongame.c ****             if(ev & ev_score){   
 416              		.loc 1 205 0
 417 010a 10F0400F 		tst	r0, #64
 418 010e 20D0     		beq	.L15
 419              	.LBB4:
 206:source\bsw/reactiongame.c ****                 char buf[128];
 207:source\bsw/reactiongame.c ****                 averageReactionTime = totalReactionTime / correctPress;
 420              		.loc 1 207 0
 421 0110 114C     		ldr	r4, .L27
 422 0112 A368     		ldr	r3, [r4, #8]
 423 0114 94F84C20 		ldrb	r2, [r4, #76]	@ zero_extendqisi2
 424 0118 B3FBF2F1 		udiv	r1, r3, r2
 208:source\bsw/reactiongame.c ****                 sprintf(buf, "Correct Button Pressed : %u \n Total reaction time: %u \n Average Rea
 425              		.loc 1 208 0
 426 011c 0091     		str	r1, [sp]
 427 011e 1349     		ldr	r1, .L27+20
 428 0120 02A8     		add	r0, sp, #8
 429              	.LVL51:
 430 0122 FFF7FEFF 		bl	sprintf
 431              	.LVL52:
 209:source\bsw/reactiongame.c ****                     correctPress, (unsigned int)totalReactionTime, (unsigned int)averageReactionTim
 210:source\bsw/reactiongame.c ****                 RG_Print(buf);
 432              		.loc 1 210 0
 433 0126 02A8     		add	r0, sp, #8
 434 0128 FFF7FEFF 		bl	RG_Print
 435              	.LVL53:
 211:source\bsw/reactiongame.c ****                 
 212:source\bsw/reactiongame.c ****                 state = S_RG_RESET;
 436              		.loc 1 212 0
 437 012c 0323     		movs	r3, #3
 438 012e 2370     		strb	r3, [r4]
 439 0130 0FE0     		b	.L15
 440              	.LVL54:
 441              	.L21:
 442              	.LBE4:
 213:source\bsw/reactiongame.c ****             }
 214:source\bsw/reactiongame.c ****             break;
 215:source\bsw/reactiongame.c ****             
 216:source\bsw/reactiongame.c ****         case S_RG_RESET:
 217:source\bsw/reactiongame.c ****             if(ev & ev_reset){
 443              		.loc 1 217 0
 444 0132 10F0040F 		tst	r0, #4
 445 0136 0CD0     		beq	.L15
 218:source\bsw/reactiongame.c ****                 roundCounter = 1;
 446              		.loc 1 218 0
 447 0138 0122     		movs	r2, #1
 448 013a 094B     		ldr	r3, .L27+8
 449 013c 1A70     		strb	r2, [r3]
 219:source\bsw/reactiongame.c ****                 sysTimer = 0;
ARM GAS  C:\Users\agraw\AppData\Local\Temp\cc6vriJI.s 			page 13


 450              		.loc 1 219 0
 451 013e 064B     		ldr	r3, .L27
 452 0140 0022     		movs	r2, #0
 453 0142 1A65     		str	r2, [r3, #80]
 220:source\bsw/reactiongame.c ****                 startTimer = 0;
 454              		.loc 1 220 0
 455 0144 5A60     		str	r2, [r3, #4]
 221:source\bsw/reactiongame.c ****                 correctPress = 0;
 456              		.loc 1 221 0
 457 0146 83F84C20 		strb	r2, [r3, #76]
 222:source\bsw/reactiongame.c ****                 expectedButton = 0;
 458              		.loc 1 222 0
 459 014a 5A70     		strb	r2, [r3, #1]
 223:source\bsw/reactiongame.c ****                 totalReactionTime = 0;
 460              		.loc 1 223 0
 461 014c 9A60     		str	r2, [r3, #8]
 224:source\bsw/reactiongame.c ****                 averageReactionTime = 0;
 225:source\bsw/reactiongame.c ****                 RG_ShowWelcome();
 462              		.loc 1 225 0
 463 014e FFF7FEFF 		bl	RG_ShowWelcome
 464              	.LVL55:
 465              	.L15:
 226:source\bsw/reactiongame.c ****             }    
 227:source\bsw/reactiongame.c ****             break;
 228:source\bsw/reactiongame.c ****             
 229:source\bsw/reactiongame.c ****     }
 230:source\bsw/reactiongame.c **** 
 231:source\bsw/reactiongame.c **** }
 466              		.loc 1 231 0
 467 0152 23B0     		add	sp, sp, #140
 468              		.cfi_def_cfa_offset 12
 469              		@ sp needed
 470 0154 30BD     		pop	{r4, r5, pc}
 471              	.L28:
 472 0156 00BF     		.align	2
 473              	.L27:
 474 0158 00000000 		.word	.LANCHOR1
 475 015c 5C000000 		.word	.LC2
 476 0160 00000000 		.word	.LANCHOR0
 477 0164 94000000 		.word	.LC3
 478 0168 B0000000 		.word	.LC4
 479 016c BC000000 		.word	.LC5
 480              		.cfi_endproc
 481              	.LFE115:
 482              		.size	RG_ProcessEvent, .-RG_ProcessEvent
 483              		.comm	currentTick,4,4
 484              		.data
 485              		.set	.LANCHOR0,. + 0
 486              		.type	roundCounter, %object
 487              		.size	roundCounter, 1
 488              	roundCounter:
 489 0000 01       		.byte	1
 490              		.section	.rodata.str1.4,"aMS",%progbits,1
 491              		.align	2
 492              	.LC0:
 493 0000 57656C63 		.ascii	"Welcome to Reaction Game\012\000"
 493      6F6D6520 
ARM GAS  C:\Users\agraw\AppData\Local\Temp\cc6vriJI.s 			page 14


 493      746F2052 
 493      65616374 
 493      696F6E20 
 494 001a 0000     		.space	2
 495              	.LC1:
 496 001c 526F756E 		.ascii	"Round %u Started: \012Press one of the two buttons "
 496      64202575 
 496      20537461 
 496      72746564 
 496      3A200A50 
 497 004c 746F2073 		.ascii	"to start.. \012\000"
 497      74617274 
 497      2E2E200A 
 497      00
 498 0059 000000   		.space	3
 499              	.LC2:
 500 005c 47726561 		.ascii	"Great - Correct Button Pressed \012Reaction Time in"
 500      74202D20 
 500      436F7272 
 500      65637420 
 500      42757474 
 501 008c 206D733A 		.ascii	" ms: %u\000"
 501      20257500 
 502              	.LC3:
 503 0094 496E636F 		.ascii	"Incorrect Button Pressed \012\000"
 503      72726563 
 503      74204275 
 503      74746F6E 
 503      20507265 
 504 00af 00       		.space	1
 505              	.LC4:
 506 00b0 546F6F20 		.ascii	"Too slow \012\000"
 506      736C6F77 
 506      200A00
 507 00bb 00       		.space	1
 508              	.LC5:
 509 00bc 436F7272 		.ascii	"Correct Button Pressed : %u \012 Total reaction tim"
 509      65637420 
 509      42757474 
 509      6F6E2050 
 509      72657373 
 510 00ec 653A2025 		.ascii	"e: %u \012 Average Reaction Time: %u\000"
 510      75200A20 
 510      41766572 
 510      61676520 
 510      52656163 
 511              		.bss
 512              		.align	2
 513              		.set	.LANCHOR1,. + 0
 514              		.type	state, %object
 515              		.size	state, 1
 516              	state:
 517 0000 00       		.space	1
 518              		.type	expectedButton, %object
 519              		.size	expectedButton, 1
 520              	expectedButton:
 521 0001 00       		.space	1
ARM GAS  C:\Users\agraw\AppData\Local\Temp\cc6vriJI.s 			page 15


 522 0002 0000     		.space	2
 523              		.type	startTimer, %object
 524              		.size	startTimer, 4
 525              	startTimer:
 526 0004 00000000 		.space	4
 527              		.type	totalReactionTime, %object
 528              		.size	totalReactionTime, 4
 529              	totalReactionTime:
 530 0008 00000000 		.space	4
 531              		.type	tempBuf, %object
 532              		.size	tempBuf, 64
 533              	tempBuf:
 534 000c 00000000 		.space	64
 534      00000000 
 534      00000000 
 534      00000000 
 534      00000000 
 535              		.type	correctPress, %object
 536              		.size	correctPress, 1
 537              	correctPress:
 538 004c 00       		.space	1
 539 004d 000000   		.space	3
 540              		.type	sysTimer, %object
 541              		.size	sysTimer, 4
 542              	sysTimer:
 543 0050 00000000 		.space	4
 544              		.text
 545              	.Letext0:
 546              		.file 2 "c:\\program files (x86)\\cypress\\psoc creator\\4.4\\psoc creator\\import\\gnu\\arm\\5.4.
 547              		.file 3 "c:\\program files (x86)\\cypress\\psoc creator\\4.4\\psoc creator\\import\\gnu\\arm\\5.4.
 548              		.file 4 "Generated_Source\\PSoC5/ErikaOS_1_common_ee_types.inc"
 549              		.file 5 "Generated_Source\\PSoC5/ErikaOS_1_cortex_mx_ee_cpu.inc"
 550              		.file 6 "Generated_Source\\PSoC5/ErikaOS_1_ee_oo_common.inc"
 551              		.file 7 "source\\bsw\\global.h"
 552              		.file 8 "source\\bsw\\reactiongame.h"
 553              		.file 9 "Generated_Source\\PSoC5/ErikaOS_1_ee_oo_intfunc.inc"
 554              		.file 10 "Generated_Source\\PSoC5/ErikaOS_1_cortex_mx_ee_context.inc"
 555              		.file 11 "Generated_Source\\PSoC5/ErikaOS_1_common_ee_primitives.inc"
 556              		.file 12 "Generated_Source\\PSoC5/core_cm3.h"
 557              		.file 13 "Generated_Source\\PSoC5/ErikaOS_1_ee_oo_kernel.inc"
 558              		.file 14 "Generated_Source\\PSoC5/UART_LOG.h"
 559              		.file 15 "Generated_Source\\PSoC5/RGB_PWM_blue.h"
 560              		.file 16 "Generated_Source\\PSoC5/RGB_PWM_green.h"
 561              		.file 17 "Generated_Source\\PSoC5/RGB_PWM_red.h"
 562              		.file 18 "Generated_Source\\PSoC5/PWM_yellow.h"
 563              		.file 19 "Generated_Source\\PSoC5/PWM_green.h"
 564              		.file 20 "Generated_Source\\PSoC5/PWM_red.h"
 565              		.file 21 ".\\source\\bsw\\labboard/seven.h"
 566              		.file 22 ".\\source\\bsw\\labboard/led.h"
 567              		.file 23 "c:\\program files (x86)\\cypress\\psoc creator\\4.4\\psoc creator\\import\\gnu\\arm\\5.4