ARM GAS  C:\Users\agraw\AppData\Local\Temp\ccq4Vhes.s 			page 1


   1              		.syntax unified
   2              		.cpu cortex-m3
   3              		.fpu softvfp
   4              		.eabi_attribute 20, 1
   5              		.eabi_attribute 21, 1
   6              		.eabi_attribute 23, 3
   7              		.eabi_attribute 24, 1
   8              		.eabi_attribute 25, 1
   9              		.eabi_attribute 26, 1
  10              		.eabi_attribute 30, 6
  11              		.eabi_attribute 34, 1
  12              		.eabi_attribute 18, 4
  13              		.thumb
  14              		.syntax unified
  15              		.file	"main.c"
  16              		.text
  17              	.Ltext0:
  18              		.cfi_sections	.debug_frame
  19              		.comm	TimingAnalyzer_SystickCounterMillis,4,4
  20              		.section	.rodata
  21              		.align	2
  22              	.LC0:
  23 0000 54696D65 		.ascii	"Timer DWT_OUTPUT\000"
  23      72204457 
  23      545F4F55 
  23      54505554 
  23      00
  24 0011 000000   		.align	2
  25              	.LC1:
  26 0014 54696D65 		.ascii	"Timer SYSTICK_OUTPUT\000"
  26      72205359 
  26      53544943 
  26      4B5F4F55 
  26      54505554 
  27 0029 000000   		.align	2
  28              	.LC2:
  29 002c 4572726F 		.ascii	"Error initalizing\000"
  29      7220696E 
  29      6974616C 
  29      697A696E 
  29      6700
  30              		.section	.text.main,"ax",%progbits
  31              		.align	2
  32              		.global	main
  33              		.thumb
  34              		.thumb_func
  35              		.type	main, %function
  36              	main:
  37              	.LFB65:
  38              		.file 1 "main.c"
   1:main.c        **** /* ========================================
   2:main.c        ****  * \file	main.c
   3:main.c        ****  * \author	Dikshant Agrawal 	Hochschule Darmstadt - dikshant.agrawal@stud.h-da.de
   4:main.c        ****  * \date 	27.10.2025
   5:main.c        ****  * \version	1.0
   6:main.c        ****  * Copyright YOUR COMPANY, THE YEAR
   7:main.c        ****  * All Rights Reserved
ARM GAS  C:\Users\agraw\AppData\Local\Temp\ccq4Vhes.s 			page 2


   8:main.c        ****  * UNPUBLISHED, LICENSED SOFTWARE.
   9:main.c        ****  *
  10:main.c        ****  * CONFIDENTIAL AND PROPRIETARY INFORMATION
  11:main.c        ****  * WHICH IS THE PROPERTY OF your company.
  12:main.c        ****  *
  13:main.c        ****  * ========================================
  14:main.c        **** */
  15:main.c        **** #include "project.h"
  16:main.c        **** #include "analyzer.h"
  17:main.c        **** #include "global.h"
  18:main.c        **** #include "stdio.h"
  19:main.c        **** #include <math.h>
  20:main.c        **** 
  21:main.c        **** #define TestCase2
  22:main.c        **** 
  23:main.c        **** /*Just to check entry value (for personal use)*/
  24:main.c        **** #ifdef TestCase0
  25:main.c        **** 
  26:main.c        ****     int main(void)
  27:main.c        **** {
  28:main.c        ****     CyGlobalIntEnable; /* Enable global interrupts. */
  29:main.c        ****     int entryValue2 = 0;
  30:main.c        ****     int entryValue1 = 0;
  31:main.c        **** 
  32:main.c        ****     TimingAnalyzer_Init(); //Initalize the analyzer and pheripherals
  33:main.c        ****        
  34:main.c        ****     TimingAnalyser_Instance_t analyzers[1];
  35:main.c        ****     
  36:main.c        ****     //Create struct Instance for Timing Analyzer for DWT with OUTPUT [Timer DWT_OUTPUT]
  37:main.c        ****     TimingAnalyzer_Create(&analyzers[0], C_DWT_OUTPUT, LED_GREEN, "Timer DWT_OUTPUT", 111);
  38:main.c        ****     char temp[100];
  39:main.c        ****     entryValue1= TimingAnalyzer_CaptureEntry(&analyzers[0]);
  40:main.c        ****     CyDelay(1);
  41:main.c        ****     entryValue2 = TimingAnalyzer_CaptureEntry(&analyzers[0]);
  42:main.c        ****     sprintf(temp, "entry1=%u, entry2=%u\n", entryValue1, entryValue2);
  43:main.c        ****     UART_PutString(temp);
  44:main.c        **** 
  45:main.c        **** for(;;);
  46:main.c        **** }
  47:main.c        **** 
  48:main.c        **** #endif
  49:main.c        **** 
  50:main.c        **** /*Basic Test case written for Lab 1A/1B */
  51:main.c        **** #ifdef TestCase1
  52:main.c        ****     
  53:main.c        **** int main(void)
  54:main.c        **** {
  55:main.c        ****     CyGlobalIntEnable; /* Enable global interrupts. */
  56:main.c        ****  
  57:main.c        ****     TimingAnalyzer_Init(); //Initalize the analyzer and pheripherals
  58:main.c        ****        
  59:main.c        ****     TimingAnalyser_Instance_t analyzers[3];
  60:main.c        ****     uint32_t Active_Analyzer[] = {0,1,2};
  61:main.c        ****     uint32_t Active_Analyzer_size = sizeof(Active_Analyzer) / sizeof(Active_Analyzer[0]);;
  62:main.c        ****     
  63:main.c        ****     
  64:main.c        ****     //Create struct Instance for Timing Analyzer for DWT with OUTPUT [Timer DWT_OUTPUT]
ARM GAS  C:\Users\agraw\AppData\Local\Temp\ccq4Vhes.s 			page 3


  65:main.c        ****     TimingAnalyzer_Create(&analyzers[0], C_DWT_OUTPUT, LED_GREEN, "Timer DWT_OUTPUT", 111);
  66:main.c        ****     TimingAnalyzer_Create(&analyzers[1], C_SYSTICK_OUTPUT, LED_RED, "Timer SYS_OUTPUT", 123);
  67:main.c        ****     TimingAnalyzer_Create(&analyzers[2], C_OUTPUT, LED_YELLOW, "Timer OUTPUT", 223);
  68:main.c        ****     
  69:main.c        ****     TimingAnalyzer_Start(&analyzers[0]);
  70:main.c        ****     //CyDelay(1000);
  71:main.c        ****     TimingAnalyzer_Stop(&analyzers[0]);
  72:main.c        ****     TimingAnalyzer_Print(&analyzers[0]);
  73:main.c        ****     TimingAnalyzer_Start(&analyzers[1]);
  74:main.c        ****     TimingAnalyzer_Stop(&analyzers[1]);
  75:main.c        ****     TimingAnalyzer_PrintAll(analyzers, Active_Analyzer, Active_Analyzer_size);
  76:main.c        ****     
  77:main.c        ****     
  78:main.c        ****     for(;;){}
  79:main.c        **** 
  80:main.c        **** }
  81:main.c        **** #endif
  82:main.c        **** 
  83:main.c        **** /*Test Case 2.1 Basic Functionality start / stop and print works properly 
  84:main.c        **** * pause / resume works as expected 
  85:main.c        **** * multiple timers can be used in parallel without interfering 
  86:main.c        **** */
  87:main.c        **** #ifdef TestCase2
  88:main.c        **** 
  89:main.c        **** int main(void)
  90:main.c        **** {
  39              		.loc 1 90 0
  40              		.cfi_startproc
  41              		@ args = 0, pretend = 0, frame = 184
  42              		@ frame_needed = 1, uses_anonymous_args = 0
  43 0000 B0B5     		push	{r4, r5, r7, lr}
  44              		.cfi_def_cfa_offset 16
  45              		.cfi_offset 4, -16
  46              		.cfi_offset 5, -12
  47              		.cfi_offset 7, -8
  48              		.cfi_offset 14, -4
  49 0002 B0B0     		sub	sp, sp, #192
  50              		.cfi_def_cfa_offset 208
  51 0004 02AF     		add	r7, sp, #8
  52              		.cfi_def_cfa 7, 200
  91:main.c        ****     CyGlobalIntEnable; /* Enable global interrupts. */
  53              		.loc 1 91 0
  54              		.syntax unified
  55              	@ 91 "main.c" 1
  56 0006 62B6     		CPSIE   i
  57              	@ 0 "" 2
  92:main.c        ****     char temp[32];
  93:main.c        ****     uint32_t Active_Analyzer[] = {0,1};
  58              		.loc 1 93 0
  59              		.thumb
  60              		.syntax unified
  61 0008 0023     		movs	r3, #0
  62 000a C7F88830 		str	r3, [r7, #136]
  63 000e 0123     		movs	r3, #1
  64 0010 C7F88C30 		str	r3, [r7, #140]
  94:main.c        ****     uint32_t Active_Analyzer_size = sizeof(Active_Analyzer)/sizeof(Active_Analyzer[0]);
  65              		.loc 1 94 0
ARM GAS  C:\Users\agraw\AppData\Local\Temp\ccq4Vhes.s 			page 4


  66 0014 0223     		movs	r3, #2
  67 0016 C7F8B430 		str	r3, [r7, #180]
  95:main.c        ****     TimingAnalyser_Instance_t analyzers[2];
  96:main.c        ****     
  97:main.c        ****     TimingAnalyzer_Init(); //Initalize the analyzer and pheripherals
  68              		.loc 1 97 0
  69 001a FFF7FEFF 		bl	TimingAnalyzer_Init
  98:main.c        ****     
  99:main.c        ****     
 100:main.c        ****     //Create struct Instance for Timing Analyzer for DWT with OUTPUT [Timer DWT_OUTPUT]
 101:main.c        ****     RC_t rc = TimingAnalyzer_Create(&analyzers[0], C_DWT_OUTPUT, LED_GREEN, "Timer DWT_OUTPUT", 111
  70              		.loc 1 101 0
  71 001e 3846     		mov	r0, r7
  72 0020 6F23     		movs	r3, #111
  73 0022 0093     		str	r3, [sp]
  74 0024 404B     		ldr	r3, .L5
  75 0026 0222     		movs	r2, #2
  76 0028 0121     		movs	r1, #1
  77 002a FFF7FEFF 		bl	TimingAnalyzer_Create
  78 002e 0346     		mov	r3, r0
  79 0030 87F8B330 		strb	r3, [r7, #179]
 102:main.c        ****     RC_t rc1 = TimingAnalyzer_Create(&analyzers[1], C_SYSTICK_OUTPUT, LED_RED, "Timer SYSTICK_OUTPU
  80              		.loc 1 102 0
  81 0034 3B46     		mov	r3, r7
  82 0036 03F14400 		add	r0, r3, #68
  83 003a DE23     		movs	r3, #222
  84 003c 0093     		str	r3, [sp]
  85 003e 3B4B     		ldr	r3, .L5+4
  86 0040 0022     		movs	r2, #0
  87 0042 0321     		movs	r1, #3
  88 0044 FFF7FEFF 		bl	TimingAnalyzer_Create
  89 0048 0346     		mov	r3, r0
  90 004a 87F8B230 		strb	r3, [r7, #178]
 103:main.c        ****     //If Create is not initialized properly it should skip the timing analysis object
 104:main.c        ****     //Can add more logics for error handeling using RC Codes in Main.c
 105:main.c        ****     
 106:main.c        ****     if(rc != RC_SUCCESS || rc1 != RC_SUCCESS){
  91              		.loc 1 106 0
  92 004e 97F9B330 		ldrsb	r3, [r7, #179]
  93 0052 002B     		cmp	r3, #0
  94 0054 03D1     		bne	.L2
  95              		.loc 1 106 0 is_stmt 0 discriminator 1
  96 0056 97F9B230 		ldrsb	r3, [r7, #178]
  97 005a 002B     		cmp	r3, #0
  98 005c 0DD0     		beq	.L3
  99              	.L2:
 107:main.c        ****         sprintf(temp, "Error initalizing");
 100              		.loc 1 107 0 is_stmt 1
 101 005e 07F19003 		add	r3, r7, #144
 102 0062 334A     		ldr	r2, .L5+8
 103 0064 1C46     		mov	r4, r3
 104 0066 1546     		mov	r5, r2
 105 0068 0FCD     		ldmia	r5!, {r0, r1, r2, r3}
 106 006a 0FC4     		stmia	r4!, {r0, r1, r2, r3}
 107 006c 2B68     		ldr	r3, [r5]
 108 006e 2380     		strh	r3, [r4]	@ movhi
 108:main.c        ****         UART_PutString(temp);
ARM GAS  C:\Users\agraw\AppData\Local\Temp\ccq4Vhes.s 			page 5


 109              		.loc 1 108 0
 110 0070 07F19003 		add	r3, r7, #144
 111 0074 1846     		mov	r0, r3
 112 0076 FFF7FEFF 		bl	UART_PutString
 113              	.L3:
 109:main.c        ****     }
 110:main.c        **** 
 111:main.c        ****     /*
 112:main.c        ****     * Test Case 2.1 Basic START STOP PAUSE RESUME
 113:main.c        ****     * Write code in the main.c with CyDelay() to prove that: 
 114:main.c        ****     * start / stop and print works properly
 115:main.c        ****     * pause / resume works as expected 
 116:main.c        ****     * multiple timers can be used in parallel without interfering
 117:main.c        **** 	*/
 118:main.c        ****     
 119:main.c        ****     TimingAnalyzer_Start(&analyzers[1]);
 114              		.loc 1 119 0
 115 007a 3B46     		mov	r3, r7
 116 007c 4433     		adds	r3, r3, #68
 117 007e 1846     		mov	r0, r3
 118 0080 FFF7FEFF 		bl	TimingAnalyzer_Start
 120:main.c        ****     TimingAnalyzer_Start(&analyzers[0]);
 119              		.loc 1 120 0
 120 0084 3B46     		mov	r3, r7
 121 0086 1846     		mov	r0, r3
 122 0088 FFF7FEFF 		bl	TimingAnalyzer_Start
 121:main.c        ****     CyDelay(3000);
 123              		.loc 1 121 0
 124 008c 40F6B830 		movw	r0, #3000
 125 0090 FFF7FEFF 		bl	CyDelay
 122:main.c        ****     TimingAnalyzer_Stop(&analyzers[1]);
 126              		.loc 1 122 0
 127 0094 3B46     		mov	r3, r7
 128 0096 4433     		adds	r3, r3, #68
 129 0098 1846     		mov	r0, r3
 130 009a FFF7FEFF 		bl	TimingAnalyzer_Stop
 123:main.c        ****     TimingAnalyzer_Stop(&analyzers[0]);
 131              		.loc 1 123 0
 132 009e 3B46     		mov	r3, r7
 133 00a0 1846     		mov	r0, r3
 134 00a2 FFF7FEFF 		bl	TimingAnalyzer_Stop
 124:main.c        ****     TimingAnalyzer_PrintAll(analyzers, Active_Analyzer, Active_Analyzer_size );
 135              		.loc 1 124 0
 136 00a6 07F18801 		add	r1, r7, #136
 137 00aa 3B46     		mov	r3, r7
 138 00ac D7F8B420 		ldr	r2, [r7, #180]
 139 00b0 1846     		mov	r0, r3
 140 00b2 FFF7FEFF 		bl	TimingAnalyzer_PrintAll
 125:main.c        ****     
 126:main.c        ****     
 127:main.c        ****     TimingAnalyzer_Start(&analyzers[1]);
 141              		.loc 1 127 0
 142 00b6 3B46     		mov	r3, r7
 143 00b8 4433     		adds	r3, r3, #68
 144 00ba 1846     		mov	r0, r3
 145 00bc FFF7FEFF 		bl	TimingAnalyzer_Start
 128:main.c        ****     TimingAnalyzer_Start(&analyzers[0]);
ARM GAS  C:\Users\agraw\AppData\Local\Temp\ccq4Vhes.s 			page 6


 146              		.loc 1 128 0
 147 00c0 3B46     		mov	r3, r7
 148 00c2 1846     		mov	r0, r3
 149 00c4 FFF7FEFF 		bl	TimingAnalyzer_Start
 129:main.c        ****     CyDelay(1000);
 150              		.loc 1 129 0
 151 00c8 4FF47A70 		mov	r0, #1000
 152 00cc FFF7FEFF 		bl	CyDelay
 130:main.c        ****     TimingAnalyzer_Pause(&analyzers[1]);
 153              		.loc 1 130 0
 154 00d0 3B46     		mov	r3, r7
 155 00d2 4433     		adds	r3, r3, #68
 156 00d4 1846     		mov	r0, r3
 157 00d6 FFF7FEFF 		bl	TimingAnalyzer_Pause
 131:main.c        ****     TimingAnalyzer_Pause(&analyzers[0]);
 158              		.loc 1 131 0
 159 00da 3B46     		mov	r3, r7
 160 00dc 1846     		mov	r0, r3
 161 00de FFF7FEFF 		bl	TimingAnalyzer_Pause
 132:main.c        ****     CyDelay(1000);
 162              		.loc 1 132 0
 163 00e2 4FF47A70 		mov	r0, #1000
 164 00e6 FFF7FEFF 		bl	CyDelay
 133:main.c        ****     TimingAnalyzer_Resume(&analyzers[1]);
 165              		.loc 1 133 0
 166 00ea 3B46     		mov	r3, r7
 167 00ec 4433     		adds	r3, r3, #68
 168 00ee 1846     		mov	r0, r3
 169 00f0 FFF7FEFF 		bl	TimingAnalyzer_Resume
 134:main.c        ****     TimingAnalyzer_Resume(&analyzers[0]);
 170              		.loc 1 134 0
 171 00f4 3B46     		mov	r3, r7
 172 00f6 1846     		mov	r0, r3
 173 00f8 FFF7FEFF 		bl	TimingAnalyzer_Resume
 135:main.c        ****     CyDelay(2000);
 174              		.loc 1 135 0
 175 00fc 4FF4FA60 		mov	r0, #2000
 176 0100 FFF7FEFF 		bl	CyDelay
 136:main.c        ****     TimingAnalyzer_Stop(&analyzers[1]);
 177              		.loc 1 136 0
 178 0104 3B46     		mov	r3, r7
 179 0106 4433     		adds	r3, r3, #68
 180 0108 1846     		mov	r0, r3
 181 010a FFF7FEFF 		bl	TimingAnalyzer_Stop
 137:main.c        ****     TimingAnalyzer_Stop(&analyzers[0]);
 182              		.loc 1 137 0
 183 010e 3B46     		mov	r3, r7
 184 0110 1846     		mov	r0, r3
 185 0112 FFF7FEFF 		bl	TimingAnalyzer_Stop
 138:main.c        ****     TimingAnalyzer_PrintAll(analyzers, Active_Analyzer, Active_Analyzer_size );
 186              		.loc 1 138 0
 187 0116 07F18801 		add	r1, r7, #136
 188 011a 3B46     		mov	r3, r7
 189 011c D7F8B420 		ldr	r2, [r7, #180]
 190 0120 1846     		mov	r0, r3
 191 0122 FFF7FEFF 		bl	TimingAnalyzer_PrintAll
 192              	.L4:
ARM GAS  C:\Users\agraw\AppData\Local\Temp\ccq4Vhes.s 			page 7


 139:main.c        ****     
 140:main.c        ****     
 141:main.c        ****     
 142:main.c        ****     for(;;){}
 193              		.loc 1 142 0 discriminator 1
 194 0126 FEE7     		b	.L4
 195              	.L6:
 196              		.align	2
 197              	.L5:
 198 0128 00000000 		.word	.LC0
 199 012c 14000000 		.word	.LC1
 200 0130 2C000000 		.word	.LC2
 201              		.cfi_endproc
 202              	.LFE65:
 203              		.size	main, .-main
 204              		.text
 205              	.Letext0:
 206              		.file 2 "c:\\program files (x86)\\cypress\\psoc creator\\4.4\\psoc creator\\import\\gnu\\arm\\5.4.
 207              		.file 3 "c:\\program files (x86)\\cypress\\psoc creator\\4.4\\psoc creator\\import\\gnu\\arm\\5.4.
 208              		.file 4 ".\\bsw/global.h"
 209              		.file 5 "analyzer.h"
 210              		.file 6 "Generated_Source\\PSoC5/core_cm3.h"